ARM GAS  C:\Users\winstona\AppData\Local\Temp\ccpY8M8W.s 			page 1


   1              		.syntax unified
   2              		.cpu cortex-m3
   3              		.fpu softvfp
   4              		.eabi_attribute 20, 1
   5              		.eabi_attribute 21, 1
   6              		.eabi_attribute 23, 3
   7              		.eabi_attribute 24, 1
   8              		.eabi_attribute 25, 1
   9              		.eabi_attribute 26, 1
  10              		.eabi_attribute 30, 1
  11              		.eabi_attribute 34, 1
  12              		.eabi_attribute 18, 4
  13              		.thumb
  14              		.syntax unified
  15              		.file	"main.c"
  16              		.text
  17              	.Ltext0:
  18              		.cfi_sections	.debug_frame
  19              		.section	.text.ReceiveInterruptHandler,"ax",%progbits
  20              		.align	2
  21              		.global	ReceiveInterruptHandler
  22              		.thumb
  23              		.thumb_func
  24              		.type	ReceiveInterruptHandler, %function
  25              	ReceiveInterruptHandler:
  26              	.LFB64:
  27              		.file 1 "main.c"
   1:main.c        **** /* ========================================
   2:main.c        ****  * FILENAME: main.c
   3:main.c        ****  * AUTHORS: Tyler Wells, Andy Winston, 
   4:main.c        ****             Kamith Mirissage
   5:main.c        ****  * DATE: 11 DEC 2017
   6:main.c        ****  * PROVIDES:
   7:main.c        ****  * - A PSOC implementation of a system 
   8:main.c        ****  *   that fucntions as a message-exchange 
   9:main.c        ****  *   on CSMA/CD bus using unipolar return
  10:main.c        ****  *   to zero (RZ) line coding 
  11:main.c        ****  * - State machine with  channel monitor
  12:main.c        ****  *   implementation (BUSY/IDLE/COLLISION)
  13:main.c        ****  * - Software pushbutton debouncing used 
  14:main.c        ****  * - LED to signal different states
  15:main.c        ****  * - Interrupt handling for rising and 
  16:main.c        ****   *  edge triggers of a timer
  17:main.c        ****  * ========================================
  18:main.c        **** */
  19:main.c        **** 
  20:main.c        **** #include "project.h"
  21:main.c        **** #include <stdlib.h>
  22:main.c        **** #include <stdbool.h>
  23:main.c        **** #include "stdio.h"
  24:main.c        **** 
  25:main.c        **** #define COLLISION_PERIOD                   52
  26:main.c        **** #define COLLISION_COUNTER                  51
  27:main.c        **** #define IDLE_PERIOD                        830
  28:main.c        **** #define IDLE_COUNTER                       829
  29:main.c        **** 
  30:main.c        **** #define RX_BUFFER_SIZE                     32
ARM GAS  C:\Users\winstona\AppData\Local\Temp\ccpY8M8W.s 			page 2


  31:main.c        **** 
  32:main.c        **** #define NULL_PAD                           1
  33:main.c        **** 
  34:main.c        **** #define MAX_RX_HIGH_TIME_CLK               52
  35:main.c        **** #define EXPECTED_SYMBOL_TIME_CLK           50
  36:main.c        **** #define MIN_RX_HIGH_TIME_CLK               48
  37:main.c        **** 
  38:main.c        **** #define NO_BIT                             8
  39:main.c        **** #define START_BIT                          7
  40:main.c        **** 
  41:main.c        **** 
  42:main.c        **** //States include: 
  43:main.c        **** //Busy - signals that the channel monitor is busy
  44:main.c        **** //       and in either line high or line low 
  45:main.c        **** //Collision - collision detected, line high
  46:main.c        **** //Idle - initialized state looking for rising
  47:main.c        **** //       edge to occur
  48:main.c        **** typedef enum { BUSY, COLLISION, IDLE } State;
  49:main.c        **** State systemState;
  50:main.c        **** 
  51:main.c        **** _Bool logicLevel = 0;
  52:main.c        **** char currentDataCharacter; //current char
  53:main.c        **** int bufferPosition = 0; //serial_pos
  54:main.c        **** unsigned char buffer[500]; //serial buffer
  55:main.c        **** 
  56:main.c        **** // data converted to non-terminated string showing 1s and 0s
  57:main.c        **** unsigned char data[16];
  58:main.c        **** 
  59:main.c        **** int dataSize; //data size
  60:main.c        **** 
  61:main.c        **** // Symbol position in unipolar RZ signal. There are 16 symbols, 2 per bit.
  62:main.c        **** int symbolPosition = 0;
  63:main.c        **** 
  64:main.c        **** int count; //dataConvertedReadOutCount
  65:main.c        **** 
  66:main.c        **** // bit pos in transmitted character (0 is MSB, 6 is LSB, excludes start bit)
  67:main.c        **** int idx = 0;
  68:main.c        **** 
  69:main.c        **** /******************************************************
  70:main.c        **** Receiving character logic variables
  71:main.c        **** ******************************************************/
  72:main.c        **** //Which RX bit occurred during last HI period. 8 if no bit received yet.
  73:main.c        **** uint8_t rxBit = 8;
  74:main.c        **** // Buffer for receiving text.
  75:main.c        **** // TODO Adjust size of buffer. See if buffer is even necessary.
  76:main.c        **** //char rxBuffer[RX_BUFFER_SIZE + NULL_PAD];
  77:main.c        **** //char *rxBufferPos; // Current char position.
  78:main.c        **** char currRxChar;
  79:main.c        ****     
  80:main.c        ****     
  81:main.c        **** /*******************************************************************************
  82:main.c        **** * Define Interrupt service routine and allocate an vector to the Interrupt
  83:main.c        **** ********************************************************************************/
  84:main.c        **** 
  85:main.c        ****  /**********************************************************
  86:main.c        ****  * function name: ReceiveInterruptHandler
  87:main.c        ****  * operation: Handles interrupt timer if the timer expires
ARM GAS  C:\Users\winstona\AppData\Local\Temp\ccpY8M8W.s 			page 3


  88:main.c        ****  *            indicates an idle condition or colllision
  89:main.c        ****  *            reads the logic levon the input pin/signal
  90:main.c        ****  *            high -> collision set
  91:main.c        ****  *            low -> idle set
  92:main.c        ****  * inputs: none
  93:main.c        ****  * returns: none
  94:main.c        ****  * implemented: 14 Dec 2017
  95:main.c        ****  * edited:
  96:main.c        ****  *********************************************************/ 
  97:main.c        **** CY_ISR(ReceiveInterruptHandler)
  98:main.c        **** {
  28              		.loc 1 98 0
  29              		.cfi_startproc
  30              		@ args = 0, pretend = 0, frame = 0
  31              		@ frame_needed = 0, uses_anonymous_args = 0
  32 0000 08B5     		push	{r3, lr}
  33              		.cfi_def_cfa_offset 8
  34              		.cfi_offset 3, -8
  35              		.cfi_offset 14, -4
  99:main.c        ****    	TimerRX_STATUS; 
  36              		.loc 1 99 0
  37 0002 0F4B     		ldr	r3, .L5
  38 0004 1B78     		ldrb	r3, [r3]	@ zero_extendqisi2
 100:main.c        ****     if (logicLevel) {
  39              		.loc 1 100 0
  40 0006 0F4B     		ldr	r3, .L5+4
  41 0008 1B78     		ldrb	r3, [r3]	@ zero_extendqisi2
  42 000a 5BB1     		cbz	r3, .L2
 101:main.c        ****         systemState = COLLISION;
  43              		.loc 1 101 0
  44 000c 0120     		movs	r0, #1
  45 000e 0E4B     		ldr	r3, .L5+8
  46 0010 1870     		strb	r0, [r3]
 102:main.c        ****         COLLISION_Write(1);
  47              		.loc 1 102 0
  48 0012 FFF7FEFF 		bl	COLLISION_Write
  49              	.LVL0:
 103:main.c        ****         IDLE_Write(0);
  50              		.loc 1 103 0
  51 0016 0020     		movs	r0, #0
  52 0018 FFF7FEFF 		bl	IDLE_Write
  53              	.LVL1:
 104:main.c        ****         BUSY_Write(0);
  54              		.loc 1 104 0
  55 001c 0020     		movs	r0, #0
  56 001e FFF7FEFF 		bl	BUSY_Write
  57              	.LVL2:
  58 0022 08BD     		pop	{r3, pc}
  59              	.L2:
 105:main.c        ****     } else {
 106:main.c        ****         systemState = IDLE;
  60              		.loc 1 106 0
  61 0024 0222     		movs	r2, #2
  62 0026 084B     		ldr	r3, .L5+8
  63 0028 1A70     		strb	r2, [r3]
 107:main.c        ****         COLLISION_Write(0);
  64              		.loc 1 107 0
ARM GAS  C:\Users\winstona\AppData\Local\Temp\ccpY8M8W.s 			page 4


  65 002a 0020     		movs	r0, #0
  66 002c FFF7FEFF 		bl	COLLISION_Write
  67              	.LVL3:
 108:main.c        ****         IDLE_Write(1);
  68              		.loc 1 108 0
  69 0030 0120     		movs	r0, #1
  70 0032 FFF7FEFF 		bl	IDLE_Write
  71              	.LVL4:
 109:main.c        ****         BUSY_Write(0);
  72              		.loc 1 109 0
  73 0036 0020     		movs	r0, #0
  74 0038 FFF7FEFF 		bl	BUSY_Write
  75              	.LVL5:
  76 003c 08BD     		pop	{r3, pc}
  77              	.L6:
  78 003e 00BF     		.align	2
  79              	.L5:
  80 0040 67640040 		.word	1073767527
  81 0044 00000000 		.word	.LANCHOR0
  82 0048 00000000 		.word	systemState
  83              		.cfi_endproc
  84              	.LFE64:
  85              		.size	ReceiveInterruptHandler, .-ReceiveInterruptHandler
  86              		.section	.text.RisingEdgeInterruptHandler,"ax",%progbits
  87              		.align	2
  88              		.global	RisingEdgeInterruptHandler
  89              		.thumb
  90              		.thumb_func
  91              		.type	RisingEdgeInterruptHandler, %function
  92              	RisingEdgeInterruptHandler:
  93              	.LFB65:
 110:main.c        ****     }
 111:main.c        **** }
 112:main.c        **** 
 113:main.c        **** 
 114:main.c        ****  /**********************************************************
 115:main.c        ****  * function name: RisingEdgeInterruptHandler
 116:main.c        ****  * operation: Handles interrupt for when a rising edge on 
 117:main.c        ****  *            the timer occurs. Triggers system to look for
 118:main.c        ****  *            falling edge (1 -> 0). Schedules a timer
 119:main.c        ****  *            interupt to occur in .6ms and sets state to 
 120:main.c        ****  *            busy
 121:main.c        ****  * inputs: none
 122:main.c        ****  * returns: none
 123:main.c        ****  * implemented: 14 Dec 2017
 124:main.c        ****  * edited:
 125:main.c        ****  *********************************************************/ 
 126:main.c        **** CY_ISR(RisingEdgeInterruptHandler)
 127:main.c        **** {
  94              		.loc 1 127 0
  95              		.cfi_startproc
  96              		@ args = 0, pretend = 0, frame = 0
  97              		@ frame_needed = 0, uses_anonymous_args = 0
 128:main.c        ****     if ((!logicLevel)){
  98              		.loc 1 128 0
  99 0000 0F4B     		ldr	r3, .L11
 100 0002 1B78     		ldrb	r3, [r3]	@ zero_extendqisi2
ARM GAS  C:\Users\winstona\AppData\Local\Temp\ccpY8M8W.s 			page 5


 101 0004 DBB9     		cbnz	r3, .L10
 127:main.c        ****     if ((!logicLevel)){
 102              		.loc 1 127 0
 103 0006 10B5     		push	{r4, lr}
 104              		.cfi_def_cfa_offset 8
 105              		.cfi_offset 4, -8
 106              		.cfi_offset 14, -4
 129:main.c        ****         RisingEdgeISR_ClearPending();
 107              		.loc 1 129 0
 108 0008 FFF7FEFF 		bl	RisingEdgeISR_ClearPending
 109              	.LVL6:
 130:main.c        ****         TimerRX_Stop();
 110              		.loc 1 130 0
 111 000c FFF7FEFF 		bl	TimerRX_Stop
 112              	.LVL7:
 131:main.c        ****         TimerRX_WritePeriod(COLLISION_PERIOD);
 113              		.loc 1 131 0
 114 0010 3420     		movs	r0, #52
 115 0012 FFF7FEFF 		bl	TimerRX_WritePeriod
 116              	.LVL8:
 132:main.c        ****         TimerRX_WriteCounter(COLLISION_COUNTER);
 117              		.loc 1 132 0
 118 0016 3320     		movs	r0, #51
 119 0018 FFF7FEFF 		bl	TimerRX_WriteCounter
 120              	.LVL9:
 133:main.c        ****         TimerRX_Start();
 121              		.loc 1 133 0
 122 001c FFF7FEFF 		bl	TimerRX_Start
 123              	.LVL10:
 134:main.c        ****         logicLevel = 1;
 124              		.loc 1 134 0
 125 0020 0120     		movs	r0, #1
 126 0022 074B     		ldr	r3, .L11
 127 0024 1870     		strb	r0, [r3]
 135:main.c        ****         systemState = BUSY;
 128              		.loc 1 135 0
 129 0026 0024     		movs	r4, #0
 130 0028 064B     		ldr	r3, .L11+4
 131 002a 1C70     		strb	r4, [r3]
 136:main.c        ****         BUSY_Write(1);
 132              		.loc 1 136 0
 133 002c FFF7FEFF 		bl	BUSY_Write
 134              	.LVL11:
 137:main.c        ****         COLLISION_Write(0);
 135              		.loc 1 137 0
 136 0030 2046     		mov	r0, r4
 137 0032 FFF7FEFF 		bl	COLLISION_Write
 138              	.LVL12:
 138:main.c        ****         IDLE_Write(0);
 139              		.loc 1 138 0
 140 0036 2046     		mov	r0, r4
 141 0038 FFF7FEFF 		bl	IDLE_Write
 142              	.LVL13:
 143 003c 10BD     		pop	{r4, pc}
 144              	.L10:
 145              		.cfi_def_cfa_offset 0
 146              		.cfi_restore 4
ARM GAS  C:\Users\winstona\AppData\Local\Temp\ccpY8M8W.s 			page 6


 147              		.cfi_restore 14
 148 003e 7047     		bx	lr
 149              	.L12:
 150              		.align	2
 151              	.L11:
 152 0040 00000000 		.word	.LANCHOR0
 153 0044 00000000 		.word	systemState
 154              		.cfi_endproc
 155              	.LFE65:
 156              		.size	RisingEdgeInterruptHandler, .-RisingEdgeInterruptHandler
 157              		.section	.text.FallingEdgeInterruptHandler,"ax",%progbits
 158              		.align	2
 159              		.global	FallingEdgeInterruptHandler
 160              		.thumb
 161              		.thumb_func
 162              		.type	FallingEdgeInterruptHandler, %function
 163              	FallingEdgeInterruptHandler:
 164              	.LFB66:
 139:main.c        ****     }
 140:main.c        **** }
 141:main.c        ****  
 142:main.c        **** 
 143:main.c        ****  /**********************************************************
 144:main.c        ****  * function name: FallingEdgeInterruptHandler
 145:main.c        ****  * operation: Handles interrupt for when a falling edge on 
 146:main.c        ****  *            the timer occurs. Triggers system to look for
 147:main.c        ****  *            rising edge (0 -> 1). Schedules a timer
 148:main.c        ****  *            interupt to occur in 7.7 ms and sets state to 
 149:main.c        ****  *            busy
 150:main.c        ****  * inputs: none
 151:main.c        ****  * returns: none
 152:main.c        ****  * implemented: 14 Dec 2017
 153:main.c        ****  * edited:
 154:main.c        ****  *********************************************************/ 
 155:main.c        **** CY_ISR(FallingEdgeInterruptHandler)
 156:main.c        **** {
 165              		.loc 1 156 0
 166              		.cfi_startproc
 167              		@ args = 0, pretend = 0, frame = 0
 168              		@ frame_needed = 0, uses_anonymous_args = 0
 157:main.c        ****     if (logicLevel) {
 169              		.loc 1 157 0
 170 0000 104B     		ldr	r3, .L17
 171 0002 1B78     		ldrb	r3, [r3]	@ zero_extendqisi2
 172 0004 EBB1     		cbz	r3, .L16
 156:main.c        ****     if (logicLevel) {
 173              		.loc 1 156 0
 174 0006 10B5     		push	{r4, lr}
 175              		.cfi_def_cfa_offset 8
 176              		.cfi_offset 4, -8
 177              		.cfi_offset 14, -4
 158:main.c        ****         FallingEdgeISR_ClearPending();
 178              		.loc 1 158 0
 179 0008 FFF7FEFF 		bl	FallingEdgeISR_ClearPending
 180              	.LVL14:
 159:main.c        ****         TimerRX_Stop();
 181              		.loc 1 159 0
ARM GAS  C:\Users\winstona\AppData\Local\Temp\ccpY8M8W.s 			page 7


 182 000c FFF7FEFF 		bl	TimerRX_Stop
 183              	.LVL15:
 160:main.c        ****         TimerRX_WritePeriod(IDLE_PERIOD);
 184              		.loc 1 160 0
 185 0010 40F23E30 		movw	r0, #830
 186 0014 FFF7FEFF 		bl	TimerRX_WritePeriod
 187              	.LVL16:
 161:main.c        ****         TimerRX_WriteCounter(IDLE_COUNTER);
 188              		.loc 1 161 0
 189 0018 40F23D30 		movw	r0, #829
 190 001c FFF7FEFF 		bl	TimerRX_WriteCounter
 191              	.LVL17:
 162:main.c        ****         TimerRX_Start();
 192              		.loc 1 162 0
 193 0020 FFF7FEFF 		bl	TimerRX_Start
 194              	.LVL18:
 163:main.c        ****         logicLevel = 0;
 195              		.loc 1 163 0
 196 0024 0024     		movs	r4, #0
 197 0026 074B     		ldr	r3, .L17
 198 0028 1C70     		strb	r4, [r3]
 164:main.c        ****         systemState = BUSY;
 199              		.loc 1 164 0
 200 002a 074B     		ldr	r3, .L17+4
 201 002c 1C70     		strb	r4, [r3]
 165:main.c        ****         BUSY_Write(1);
 202              		.loc 1 165 0
 203 002e 0120     		movs	r0, #1
 204 0030 FFF7FEFF 		bl	BUSY_Write
 205              	.LVL19:
 166:main.c        ****         COLLISION_Write(0);
 206              		.loc 1 166 0
 207 0034 2046     		mov	r0, r4
 208 0036 FFF7FEFF 		bl	COLLISION_Write
 209              	.LVL20:
 167:main.c        ****         IDLE_Write(0);
 210              		.loc 1 167 0
 211 003a 2046     		mov	r0, r4
 212 003c FFF7FEFF 		bl	IDLE_Write
 213              	.LVL21:
 214 0040 10BD     		pop	{r4, pc}
 215              	.L16:
 216              		.cfi_def_cfa_offset 0
 217              		.cfi_restore 4
 218              		.cfi_restore 14
 219 0042 7047     		bx	lr
 220              	.L18:
 221              		.align	2
 222              	.L17:
 223 0044 00000000 		.word	.LANCHOR0
 224 0048 00000000 		.word	systemState
 225              		.cfi_endproc
 226              	.LFE66:
 227              		.size	FallingEdgeInterruptHandler, .-FallingEdgeInterruptHandler
 228              		.section	.text.TransmitInterruptHandler,"ax",%progbits
 229              		.align	2
 230              		.global	TransmitInterruptHandler
ARM GAS  C:\Users\winstona\AppData\Local\Temp\ccpY8M8W.s 			page 8


 231              		.thumb
 232              		.thumb_func
 233              		.type	TransmitInterruptHandler, %function
 234              	TransmitInterruptHandler:
 235              	.LFB67:
 168:main.c        ****     }
 169:main.c        **** }
 170:main.c        **** 
 171:main.c        **** 
 172:main.c        **** 
 173:main.c        **** 
 174:main.c        ****  /**********************************************************
 175:main.c        ****  * function name: TransmitInterruptHandler
 176:main.c        ****  * operation: Handles interrupt for transmition of data
 177:main.c        ****  * inputs: none
 178:main.c        ****  * returns: none
 179:main.c        ****  * implemented: 10 Jan 2018
 180:main.c        ****  * edited:
 181:main.c        ****  *********************************************************/
 182:main.c        **** CY_ISR(TransmitInterruptHandler)
 183:main.c        **** {
 236              		.loc 1 183 0
 237              		.cfi_startproc
 238              		@ args = 0, pretend = 0, frame = 0
 239              		@ frame_needed = 0, uses_anonymous_args = 0
 240 0000 08B5     		push	{r3, lr}
 241              		.cfi_def_cfa_offset 8
 242              		.cfi_offset 3, -8
 243              		.cfi_offset 14, -4
 184:main.c        ****     TimerTX_STATUS;
 244              		.loc 1 184 0
 245 0002 2A4B     		ldr	r3, .L27
 246 0004 1B78     		ldrb	r3, [r3]	@ zero_extendqisi2
 185:main.c        **** 	currentDataCharacter = buffer[bufferPosition];  
 247              		.loc 1 185 0
 248 0006 2A4B     		ldr	r3, .L27+4
 249 0008 5B68     		ldr	r3, [r3, #4]
 250 000a 2A4A     		ldr	r2, .L27+8
 251 000c D25C     		ldrb	r2, [r2, r3]	@ zero_extendqisi2
 252 000e 2A49     		ldr	r1, .L27+12
 253 0010 0A70     		strb	r2, [r1]
 186:main.c        **** 	if(bufferPosition < dataSize) { 
 254              		.loc 1 186 0
 255 0012 2A49     		ldr	r1, .L27+16
 256 0014 0968     		ldr	r1, [r1]
 257 0016 8B42     		cmp	r3, r1
 258 0018 47DA     		bge	.L19
 187:main.c        ****         // Always send 1 in first part of start bit.
 188:main.c        **** 	    if(symbolPosition == 0) {
 259              		.loc 1 188 0
 260 001a 254B     		ldr	r3, .L27+4
 261 001c 9B68     		ldr	r3, [r3, #8]
 262 001e 43B9     		cbnz	r3, .L21
 189:main.c        ****     		TRANSMIT_Write(1);
 263              		.loc 1 189 0
 264 0020 0120     		movs	r0, #1
 265 0022 FFF7FEFF 		bl	TRANSMIT_Write
ARM GAS  C:\Users\winstona\AppData\Local\Temp\ccpY8M8W.s 			page 9


 266              	.LVL22:
 190:main.c        ****     		data[symbolPosition] = '1';
 267              		.loc 1 190 0
 268 0026 224B     		ldr	r3, .L27+4
 269 0028 9B68     		ldr	r3, [r3, #8]
 270 002a 3121     		movs	r1, #49
 271 002c 244A     		ldr	r2, .L27+20
 272 002e D154     		strb	r1, [r2, r3]
 273 0030 28E0     		b	.L22
 274              	.L21:
 191:main.c        ****         // At second half of each bit, return to 0.
 192:main.c        ****     	} else if(symbolPosition % 2 != 0){
 275              		.loc 1 192 0
 276 0032 13F0010F 		tst	r3, #1
 277 0036 08D0     		beq	.L23
 193:main.c        ****     		TRANSMIT_Write(0);
 278              		.loc 1 193 0
 279 0038 0020     		movs	r0, #0
 280 003a FFF7FEFF 		bl	TRANSMIT_Write
 281              	.LVL23:
 194:main.c        ****     		data[symbolPosition] = '0';
 282              		.loc 1 194 0
 283 003e 1C4B     		ldr	r3, .L27+4
 284 0040 9B68     		ldr	r3, [r3, #8]
 285 0042 3021     		movs	r1, #48
 286 0044 1E4A     		ldr	r2, .L27+20
 287 0046 D154     		strb	r1, [r2, r3]
 288 0048 1CE0     		b	.L22
 289              	.L23:
 195:main.c        ****         // All other cases, high or low depending on bit
 196:main.c        ****     	} else {
 197:main.c        ****     		if(currentDataCharacter & (1 << (6 - idx))){
 290              		.loc 1 197 0
 291 004a 194B     		ldr	r3, .L27+4
 292 004c DB68     		ldr	r3, [r3, #12]
 293 004e C3F10603 		rsb	r3, r3, #6
 294 0052 1A41     		asrs	r2, r2, r3
 295 0054 12F0010F 		tst	r2, #1
 296 0058 08D0     		beq	.L24
 198:main.c        ****     			TRANSMIT_Write(1);
 297              		.loc 1 198 0
 298 005a 0120     		movs	r0, #1
 299 005c FFF7FEFF 		bl	TRANSMIT_Write
 300              	.LVL24:
 199:main.c        ****     			data[symbolPosition] = '1';
 301              		.loc 1 199 0
 302 0060 134B     		ldr	r3, .L27+4
 303 0062 9B68     		ldr	r3, [r3, #8]
 304 0064 3121     		movs	r1, #49
 305 0066 164A     		ldr	r2, .L27+20
 306 0068 D154     		strb	r1, [r2, r3]
 307 006a 07E0     		b	.L25
 308              	.L24:
 200:main.c        ****     		}else{
 201:main.c        ****     			TRANSMIT_Write(0);
 309              		.loc 1 201 0
 310 006c 0020     		movs	r0, #0
ARM GAS  C:\Users\winstona\AppData\Local\Temp\ccpY8M8W.s 			page 10


 311 006e FFF7FEFF 		bl	TRANSMIT_Write
 312              	.LVL25:
 202:main.c        ****     			data[symbolPosition] = '0';   
 313              		.loc 1 202 0
 314 0072 0F4B     		ldr	r3, .L27+4
 315 0074 9B68     		ldr	r3, [r3, #8]
 316 0076 3021     		movs	r1, #48
 317 0078 114A     		ldr	r2, .L27+20
 318 007a D154     		strb	r1, [r2, r3]
 319              	.L25:
 203:main.c        ****     		}
 204:main.c        ****     		++idx;
 320              		.loc 1 204 0
 321 007c 0C4A     		ldr	r2, .L27+4
 322 007e D368     		ldr	r3, [r2, #12]
 323 0080 0133     		adds	r3, r3, #1
 324 0082 D360     		str	r3, [r2, #12]
 325              	.L22:
 205:main.c        ****     	}
 206:main.c        ****         CyDelayUs(450);
 326              		.loc 1 206 0
 327 0084 4FF4E170 		mov	r0, #450
 328 0088 FFF7FEFF 		bl	CyDelayUs
 329              	.LVL26:
 207:main.c        ****         ++symbolPosition;
 330              		.loc 1 207 0
 331 008c 084A     		ldr	r2, .L27+4
 332 008e 9368     		ldr	r3, [r2, #8]
 333 0090 0133     		adds	r3, r3, #1
 334 0092 9360     		str	r3, [r2, #8]
 208:main.c        ****         if(symbolPosition >= 16) {
 335              		.loc 1 208 0
 336 0094 0F2B     		cmp	r3, #15
 337 0096 08DD     		ble	.L19
 209:main.c        ****     	    ++bufferPosition;
 338              		.loc 1 209 0
 339 0098 1346     		mov	r3, r2
 340 009a 5268     		ldr	r2, [r2, #4]
 341 009c 0132     		adds	r2, r2, #1
 342 009e 5A60     		str	r2, [r3, #4]
 210:main.c        ****     	    idx = 0;
 343              		.loc 1 210 0
 344 00a0 0020     		movs	r0, #0
 345 00a2 D860     		str	r0, [r3, #12]
 211:main.c        ****     	    symbolPosition = 0;
 346              		.loc 1 211 0
 347 00a4 9860     		str	r0, [r3, #8]
 212:main.c        ****             TRANSMIT_Write(0);
 348              		.loc 1 212 0
 349 00a6 FFF7FEFF 		bl	TRANSMIT_Write
 350              	.LVL27:
 351              	.L19:
 352 00aa 08BD     		pop	{r3, pc}
 353              	.L28:
 354              		.align	2
 355              	.L27:
 356 00ac 65650040 		.word	1073767781
ARM GAS  C:\Users\winstona\AppData\Local\Temp\ccpY8M8W.s 			page 11


 357 00b0 00000000 		.word	.LANCHOR0
 358 00b4 00000000 		.word	buffer
 359 00b8 00000000 		.word	currentDataCharacter
 360 00bc 00000000 		.word	dataSize
 361 00c0 00000000 		.word	data
 362              		.cfi_endproc
 363              	.LFE67:
 364              		.size	TransmitInterruptHandler, .-TransmitInterruptHandler
 365              		.section	.text.main,"ax",%progbits
 366              		.align	2
 367              		.global	main
 368              		.thumb
 369              		.thumb_func
 370              		.type	main, %function
 371              	main:
 372              	.LFB68:
 213:main.c        ****         }
 214:main.c        ****     }
 215:main.c        **** }
 216:main.c        **** 
 217:main.c        ****  /**********************************************************
 218:main.c        ****  * function name: main
 219:main.c        ****  * operation: Handles the main state machine diagram for the
 220:main.c        ****  *            system. Changes  states when needed and calls
 221:main.c        ****  *            appropriate interrupt routines when triggered.                
 222:main.c        ****  * inputs: none
 223:main.c        ****  * returns: none
 224:main.c        ****  * implemented: 14 Dec 2017
 225:main.c        ****  * edited:
 226:main.c        ****  *********************************************************/ 
 227:main.c        **** int main(void)
 228:main.c        **** {
 373              		.loc 1 228 0
 374              		.cfi_startproc
 375              		@ args = 0, pretend = 0, frame = 0
 376              		@ frame_needed = 0, uses_anonymous_args = 0
 377 0000 70B5     		push	{r4, r5, r6, lr}
 378              		.cfi_def_cfa_offset 16
 379              		.cfi_offset 4, -16
 380              		.cfi_offset 5, -12
 381              		.cfi_offset 6, -8
 382              		.cfi_offset 14, -4
 229:main.c        ****     //systemState = IDLE;
 230:main.c        ****     CyGlobalIntEnable;
 383              		.loc 1 230 0
 384              		.syntax unified
 385              	@ 230 "main.c" 1
 386 0002 62B6     		CPSIE   i
 387              	@ 0 "" 2
 231:main.c        ****     RisingEdgeISR_StartEx(RisingEdgeInterruptHandler);
 388              		.loc 1 231 0
 389              		.thumb
 390              		.syntax unified
 391 0004 4E48     		ldr	r0, .L43
 392 0006 FFF7FEFF 		bl	RisingEdgeISR_StartEx
 393              	.LVL28:
 232:main.c        ****     FallingEdgeISR_StartEx(FallingEdgeInterruptHandler);
ARM GAS  C:\Users\winstona\AppData\Local\Temp\ccpY8M8W.s 			page 12


 394              		.loc 1 232 0
 395 000a 4E48     		ldr	r0, .L43+4
 396 000c FFF7FEFF 		bl	FallingEdgeISR_StartEx
 397              	.LVL29:
 233:main.c        **** //    TimerTX_Start();
 234:main.c        **** //    TimerTX_WritePeriod(45);
 235:main.c        **** //    TimerTX_WriteCounter(44);
 236:main.c        ****     ReceiveISR_StartEx(ReceiveInterruptHandler);
 398              		.loc 1 236 0
 399 0010 4D48     		ldr	r0, .L43+8
 400 0012 FFF7FEFF 		bl	ReceiveISR_StartEx
 401              	.LVL30:
 237:main.c        **** //    TransmitISR_StartEx(TransmitInterruptHandler);
 238:main.c        **** 
 239:main.c        ****     // rxBufferPos = rxBuffer;
 240:main.c        ****     
 241:main.c        ****     USBUART_Start(USBUART_device, USBUART_5V_OPERATION);
 402              		.loc 1 241 0
 403 0016 4D4B     		ldr	r3, .L43+12
 404 0018 1878     		ldrb	r0, [r3]	@ zero_extendqisi2
 405 001a 0121     		movs	r1, #1
 406 001c FFF7FEFF 		bl	USBUART_Start
 407              	.LVL31:
 408              	.L30:
 409              	.LBB2:
 242:main.c        ****     
 243:main.c        ****     while (true) {
 244:main.c        ****         State localState = systemState; // Save in case of preemption.
 410              		.loc 1 244 0
 411 0020 4B4B     		ldr	r3, .L43+16
 412 0022 1B78     		ldrb	r3, [r3]	@ zero_extendqisi2
 413              	.LVL32:
 245:main.c        ****         // TODO Make this code conditional so it doesn't check
 246:main.c        ****         // for a new bit unless something special happened.
 247:main.c        ****         // This code should only run when an edge was detected.
 248:main.c        ****         // TODO Make other code for when state changes to COLLISION
 249:main.c        ****         // or IDLE.
 250:main.c        ****         
 251:main.c        ****         // Save this locally in case of preemption.
 252:main.c        ****         if (localState == BUSY) {
 414              		.loc 1 252 0
 415 0024 002B     		cmp	r3, #0
 416 0026 73D1     		bne	.L31
 253:main.c        ****             if (TimerRX_STATUS & TimerRX_STATUS_FIFONEMP) {
 417              		.loc 1 253 0
 418 0028 4A4B     		ldr	r3, .L43+20
 419              	.LVL33:
 420 002a 1B78     		ldrb	r3, [r3]	@ zero_extendqisi2
 421 002c 13F0080F 		tst	r3, #8
 422 0030 F6D0     		beq	.L30
 423              	.LBB3:
 254:main.c        ****                 bool risingEdge = logicLevel;
 424              		.loc 1 254 0
 425 0032 494B     		ldr	r3, .L43+24
 426 0034 1C78     		ldrb	r4, [r3]	@ zero_extendqisi2
 427              	.LVL34:
 255:main.c        ****                 uint16_t inputCaptureTime = TimerRX_ReadCapture();
ARM GAS  C:\Users\winstona\AppData\Local\Temp\ccpY8M8W.s 			page 13


 428              		.loc 1 255 0
 429 0036 FFF7FEFF 		bl	TimerRX_ReadCapture
 430              	.LVL35:
 256:main.c        ****                 // Error detection. Caused by too many successive IRQs.
 257:main.c        ****                 if (TimerRX_STATUS & TimerRX_STATUS_FIFONEMP) {
 431              		.loc 1 257 0
 432 003a 464B     		ldr	r3, .L43+20
 433 003c 1B78     		ldrb	r3, [r3]	@ zero_extendqisi2
 434 003e 13F0080F 		tst	r3, #8
 435 0042 0CD0     		beq	.L33
 258:main.c        ****                     // Error state. Stop interpreting received data until idle.
 259:main.c        ****                     rxBit = NO_BIT;
 436              		.loc 1 259 0
 437 0044 0822     		movs	r2, #8
 438 0046 454B     		ldr	r3, .L43+28
 439 0048 1A70     		strb	r2, [r3]
 260:main.c        ****                     currRxChar = '\0';
 440              		.loc 1 260 0
 441 004a 0022     		movs	r2, #0
 442 004c 444B     		ldr	r3, .L43+32
 443 004e 1A70     		strb	r2, [r3]
 444              	.L34:
 261:main.c        ****                     while (systemState != IDLE);
 445              		.loc 1 261 0 discriminator 1
 446 0050 3F4B     		ldr	r3, .L43+16
 447 0052 1B78     		ldrb	r3, [r3]	@ zero_extendqisi2
 448 0054 022B     		cmp	r3, #2
 449 0056 FBD1     		bne	.L34
 262:main.c        ****                     TimerRX_ClearFIFO();
 450              		.loc 1 262 0
 451 0058 FFF7FEFF 		bl	TimerRX_ClearFIFO
 452              	.LVL36:
 453 005c E0E7     		b	.L30
 454              	.LVL37:
 455              	.L33:
 263:main.c        ****                 } else {
 264:main.c        ****                     // This code should do bit shifting (or byte shifting if necessary)
 265:main.c        ****                     // on the rising edge.
 266:main.c        ****                     // On the falling edge, after proper high length was confirmed, the
 267:main.c        ****                     // appropriate bit should be set.
 268:main.c        ****                     if (risingEdge) { // Was last low
 456              		.loc 1 268 0
 457 005e 002C     		cmp	r4, #0
 458 0060 44D0     		beq	.L35
 459              	.LBB4:
 269:main.c        ****                         if (rxBit == 8) {
 460              		.loc 1 269 0
 461 0062 3E4B     		ldr	r3, .L43+28
 462 0064 1C78     		ldrb	r4, [r3]	@ zero_extendqisi2
 463              	.LVL38:
 464 0066 082C     		cmp	r4, #8
 465 0068 02D1     		bne	.L36
 270:main.c        ****                             rxBit--;
 466              		.loc 1 270 0
 467 006a 013C     		subs	r4, r4, #1
 468 006c 1C70     		strb	r4, [r3]
 271:main.c        ****                             continue;
ARM GAS  C:\Users\winstona\AppData\Local\Temp\ccpY8M8W.s 			page 14


 469              		.loc 1 271 0
 470 006e D7E7     		b	.L30
 471              	.L36:
 272:main.c        ****                         }
 273:main.c        ****                         int timeClk = IDLE_COUNTER - inputCaptureTime;
 472              		.loc 1 273 0
 473 0070 C0F54F71 		rsb	r1, r0, #828
 474 0074 0131     		adds	r1, r1, #1
 475              	.LVL39:
 274:main.c        ****                         int symbolClkCycles = timeClk % EXPECTED_SYMBOL_TIME_CLK;
 476              		.loc 1 274 0
 477 0076 3B4A     		ldr	r2, .L43+36
 478 0078 82FB0132 		smull	r3, r2, r2, r1
 479 007c 1211     		asrs	r2, r2, #4
 480 007e CB17     		asrs	r3, r1, #31
 481 0080 D51A     		subs	r5, r2, r3
 482 0082 3226     		movs	r6, #50
 483 0084 06FB1515 		mls	r5, r6, r5, r1
 484              	.LVL40:
 275:main.c        ****                         // Find out the nearest rounding of symbol time.
 276:main.c        ****                         int nearestNumSymbols = timeClk / EXPECTED_SYMBOL_TIME_CLK
 485              		.loc 1 276 0
 486 0088 D21A     		subs	r2, r2, r3
 487 008a 182D     		cmp	r5, #24
 488 008c D4BF     		ite	le
 489 008e 1346     		movle	r3, r2
 490 0090 531C     		addgt	r3, r2, #1
 491              	.LVL41:
 277:main.c        ****                         + ((symbolClkCycles >= EXPECTED_SYMBOL_TIME_CLK / 2) ? 1 : 0);
 278:main.c        ****                         int bitsToShift = nearestNumSymbols / 2;
 492              		.loc 1 278 0
 493 0092 03EBD372 		add	r2, r3, r3, lsr #31
 494 0096 5210     		asrs	r2, r2, #1
 495              	.LVL42:
 279:main.c        ****                         if (bitsToShift > rxBit) {
 496              		.loc 1 279 0
 497 0098 A242     		cmp	r2, r4
 498 009a 09DD     		ble	.L37
 280:main.c        ****                             rxBit = START_BIT;
 499              		.loc 1 280 0
 500 009c 0722     		movs	r2, #7
 501              	.LVL43:
 502 009e 2F4B     		ldr	r3, .L43+28
 503              	.LVL44:
 504 00a0 1A70     		strb	r2, [r3]
 281:main.c        ****                             USBUART_PutChar(currRxChar);
 505              		.loc 1 281 0
 506 00a2 2F4C     		ldr	r4, .L43+32
 507 00a4 2078     		ldrb	r0, [r4]	@ zero_extendqisi2
 508              	.LVL45:
 509 00a6 FFF7FEFF 		bl	USBUART_PutChar
 510              	.LVL46:
 282:main.c        ****                             currRxChar = '\0';
 511              		.loc 1 282 0
 512 00aa 0023     		movs	r3, #0
 513 00ac 2370     		strb	r3, [r4]
 283:main.c        ****     //                        rxBufferPos++;
ARM GAS  C:\Users\winstona\AppData\Local\Temp\ccpY8M8W.s 			page 15


 284:main.c        ****     //                        *rxBufferPos = '\0'; // Nullify new buffer pos.
 285:main.c        ****                             continue;
 514              		.loc 1 285 0
 515 00ae B7E7     		b	.L30
 516              	.LVL47:
 517              	.L37:
 286:main.c        ****                         }
 287:main.c        ****                         // Improper number of symbols between highs.
 288:main.c        ****                         if ((nearestNumSymbols <= 0)
 518              		.loc 1 288 0
 519 00b0 002B     		cmp	r3, #0
 520 00b2 0CDD     		ble	.L38
 289:main.c        ****                         || (nearestNumSymbols % 2 == 0) // Even num of symbols
 521              		.loc 1 289 0
 522 00b4 13F0010F 		tst	r3, #1
 523 00b8 09D0     		beq	.L38
 290:main.c        ****                         // Below appropraite min
 291:main.c        ****                         || (inputCaptureTime < 
 292:main.c        ****                         (unsigned) nearestNumSymbols * MIN_RX_HIGH_TIME_CLK) 
 524              		.loc 1 292 0
 525 00ba 03EB4305 		add	r5, r3, r3, lsl #1
 526              	.LVL48:
 527 00be 2901     		lsls	r1, r5, #4
 528              	.LVL49:
 291:main.c        ****                         (unsigned) nearestNumSymbols * MIN_RX_HIGH_TIME_CLK) 
 529              		.loc 1 291 0
 530 00c0 8842     		cmp	r0, r1
 531 00c2 04D3     		bcc	.L38
 293:main.c        ****                         // Below appropriate min
 294:main.c        ****                         || (inputCaptureTime > 
 295:main.c        ****                         (unsigned) nearestNumSymbols * MAX_RX_HIGH_TIME_CLK)) {
 532              		.loc 1 295 0
 533 00c4 3421     		movs	r1, #52
 534 00c6 01FB03F3 		mul	r3, r1, r3
 535              	.LVL50:
 294:main.c        ****                         (unsigned) nearestNumSymbols * MAX_RX_HIGH_TIME_CLK)) {
 536              		.loc 1 294 0
 537 00ca 9842     		cmp	r0, r3
 538 00cc 0AD9     		bls	.L39
 539              	.L38:
 296:main.c        ****                             // Error state.
 297:main.c        ****                             rxBit = NO_BIT;
 540              		.loc 1 297 0
 541 00ce 0822     		movs	r2, #8
 542              	.LVL51:
 543 00d0 224B     		ldr	r3, .L43+28
 544 00d2 1A70     		strb	r2, [r3]
 298:main.c        ****                             currRxChar = '\0';
 545              		.loc 1 298 0
 546 00d4 0022     		movs	r2, #0
 547 00d6 224B     		ldr	r3, .L43+32
 548 00d8 1A70     		strb	r2, [r3]
 549              	.L40:
 299:main.c        ****                             // *rxBufferPos = '\0';
 300:main.c        ****                             while (systemState != IDLE);
 550              		.loc 1 300 0 discriminator 1
 551 00da 1D4B     		ldr	r3, .L43+16
ARM GAS  C:\Users\winstona\AppData\Local\Temp\ccpY8M8W.s 			page 16


 552 00dc 1B78     		ldrb	r3, [r3]	@ zero_extendqisi2
 553 00de 022B     		cmp	r3, #2
 554 00e0 FBD1     		bne	.L40
 555 00e2 9DE7     		b	.L30
 556              	.LVL52:
 557              	.L39:
 301:main.c        ****                         } else {
 302:main.c        ****                             // Will round down properly, since 0.5 is truncated.
 303:main.c        ****                             rxBit -= bitsToShift;
 558              		.loc 1 303 0
 559 00e4 A41A     		subs	r4, r4, r2
 560 00e6 1D4B     		ldr	r3, .L43+28
 561 00e8 1C70     		strb	r4, [r3]
 562 00ea 99E7     		b	.L30
 563              	.LVL53:
 564              	.L35:
 565              	.LBE4:
 566              	.LBB5:
 304:main.c        ****                         }
 305:main.c        ****                     } else { // Was last high.
 306:main.c        ****                         int timeClk = COLLISION_COUNTER - inputCaptureTime;
 567              		.loc 1 306 0
 568 00ec C0F13300 		rsb	r0, r0, #51
 569              	.LVL54:
 307:main.c        ****                         if (timeClk >= MIN_RX_HIGH_TIME_CLK) {
 570              		.loc 1 307 0
 571 00f0 2F28     		cmp	r0, #47
 572 00f2 95DD     		ble	.L30
 308:main.c        ****                             currRxChar |= (1 << rxBit);
 573              		.loc 1 308 0
 574 00f4 194B     		ldr	r3, .L43+28
 575 00f6 1A78     		ldrb	r2, [r3]	@ zero_extendqisi2
 576 00f8 0123     		movs	r3, #1
 577 00fa 9340     		lsls	r3, r3, r2
 578 00fc 1849     		ldr	r1, .L43+32
 579 00fe 0878     		ldrb	r0, [r1]	@ zero_extendqisi2
 580              	.LVL55:
 581 0100 0343     		orrs	r3, r3, r0
 582 0102 0B70     		strb	r3, [r1]
 309:main.c        ****                             USBUART_PutChar(rxBit+0x30);
 583              		.loc 1 309 0
 584 0104 02F13000 		add	r0, r2, #48
 585 0108 C0B2     		uxtb	r0, r0
 586 010a FFF7FEFF 		bl	USBUART_PutChar
 587              	.LVL56:
 588 010e 87E7     		b	.L30
 589              	.LVL57:
 590              	.L31:
 591              	.LBE5:
 592              	.LBE3:
 310:main.c        ****                             // *rxBufferPos |= (1 << rxBit);
 311:main.c        ****                         }
 312:main.c        ****                     }
 313:main.c        ****                 }
 314:main.c        ****             }
 315:main.c        ****         } else if (localState == IDLE) {
 593              		.loc 1 315 0
ARM GAS  C:\Users\winstona\AppData\Local\Temp\ccpY8M8W.s 			page 17


 594 0110 022B     		cmp	r3, #2
 595 0112 0DD1     		bne	.L41
 316:main.c        ****             // If idle, finish off current bit.
 317:main.c        ****             if (rxBit != NO_BIT) {
 596              		.loc 1 317 0
 597 0114 114B     		ldr	r3, .L43+28
 598              	.LVL58:
 599 0116 1B78     		ldrb	r3, [r3]	@ zero_extendqisi2
 600 0118 082B     		cmp	r3, #8
 601 011a 81D0     		beq	.L30
 318:main.c        ****                 USBUART_PutChar(currRxChar);
 602              		.loc 1 318 0
 603 011c 104C     		ldr	r4, .L43+32
 604 011e 2078     		ldrb	r0, [r4]	@ zero_extendqisi2
 605 0120 FFF7FEFF 		bl	USBUART_PutChar
 606              	.LVL59:
 319:main.c        ****                 currRxChar = '\0';
 607              		.loc 1 319 0
 608 0124 0023     		movs	r3, #0
 609 0126 2370     		strb	r3, [r4]
 320:main.c        ****                 // rxBufferPos++;
 321:main.c        ****                 // *rxBufferPos = '\0';
 322:main.c        ****                 rxBit = NO_BIT;
 610              		.loc 1 322 0
 611 0128 0822     		movs	r2, #8
 612 012a 0C4B     		ldr	r3, .L43+28
 613 012c 1A70     		strb	r2, [r3]
 614 012e 77E7     		b	.L30
 615              	.LVL60:
 616              	.L41:
 323:main.c        ****             }
 324:main.c        ****         } else {
 325:main.c        ****             // If collision, STOP trying to receive current bit.
 326:main.c        ****             rxBit = NO_BIT;
 617              		.loc 1 326 0
 618 0130 0822     		movs	r2, #8
 619 0132 0A4B     		ldr	r3, .L43+28
 620              	.LVL61:
 621 0134 1A70     		strb	r2, [r3]
 327:main.c        ****             currRxChar = '\0';
 622              		.loc 1 327 0
 623 0136 0022     		movs	r2, #0
 624 0138 094B     		ldr	r3, .L43+32
 625 013a 1A70     		strb	r2, [r3]
 626 013c 70E7     		b	.L30
 627              	.L44:
 628 013e 00BF     		.align	2
 629              	.L43:
 630 0140 00000000 		.word	RisingEdgeInterruptHandler
 631 0144 00000000 		.word	FallingEdgeInterruptHandler
 632 0148 00000000 		.word	ReceiveInterruptHandler
 633 014c 00000000 		.word	USBUART_device
 634 0150 00000000 		.word	systemState
 635 0154 67640040 		.word	1073767527
 636 0158 00000000 		.word	.LANCHOR0
 637 015c 00000000 		.word	.LANCHOR1
 638 0160 00000000 		.word	currRxChar
ARM GAS  C:\Users\winstona\AppData\Local\Temp\ccpY8M8W.s 			page 18


 639 0164 1F85EB51 		.word	1374389535
 640              	.LBE2:
 641              		.cfi_endproc
 642              	.LFE68:
 643              		.size	main, .-main
 644              		.comm	currRxChar,1,1
 645              		.global	rxBit
 646              		.global	idx
 647              		.comm	count,4,4
 648              		.global	symbolPosition
 649              		.comm	dataSize,4,4
 650              		.comm	data,16,4
 651              		.comm	buffer,500,4
 652              		.global	bufferPosition
 653              		.comm	currentDataCharacter,1,1
 654              		.global	logicLevel
 655              		.comm	systemState,1,1
 656              		.data
 657              		.set	.LANCHOR1,. + 0
 658              		.type	rxBit, %object
 659              		.size	rxBit, 1
 660              	rxBit:
 661 0000 08       		.byte	8
 662              		.bss
 663              		.align	2
 664              		.set	.LANCHOR0,. + 0
 665              		.type	logicLevel, %object
 666              		.size	logicLevel, 1
 667              	logicLevel:
 668 0000 00       		.space	1
 669 0001 000000   		.space	3
 670              		.type	bufferPosition, %object
 671              		.size	bufferPosition, 4
 672              	bufferPosition:
 673 0004 00000000 		.space	4
 674              		.type	symbolPosition, %object
 675              		.size	symbolPosition, 4
 676              	symbolPosition:
 677 0008 00000000 		.space	4
 678              		.type	idx, %object
 679              		.size	idx, 4
 680              	idx:
 681 000c 00000000 		.space	4
 682              		.text
 683              	.Letext0:
 684              		.file 2 "c:\\program files (x86)\\cypress\\psoc creator\\4.1\\psoc creator\\import\\gnu\\arm\\5.4.
 685              		.file 3 "c:\\program files (x86)\\cypress\\psoc creator\\4.1\\psoc creator\\import\\gnu\\arm\\5.4.
 686              		.file 4 "Generated_Source\\PSoC5/cytypes.h"
 687              		.file 5 "Generated_Source\\PSoC5/USBUART.h"
 688              		.file 6 "Generated_Source\\PSoC5/core_cm3.h"
 689              		.file 7 "Generated_Source\\PSoC5/COLLISION.h"
 690              		.file 8 "Generated_Source\\PSoC5/IDLE.h"
 691              		.file 9 "Generated_Source\\PSoC5/BUSY.h"
 692              		.file 10 "Generated_Source\\PSoC5/RisingEdgeISR.h"
 693              		.file 11 "Generated_Source\\PSoC5/TimerRX.h"
 694              		.file 12 "Generated_Source\\PSoC5/FallingEdgeISR.h"
 695              		.file 13 "Generated_Source\\PSoC5/TRANSMIT.h"
ARM GAS  C:\Users\winstona\AppData\Local\Temp\ccpY8M8W.s 			page 19


 696              		.file 14 "Generated_Source\\PSoC5/CyLib.h"
 697              		.file 15 "Generated_Source\\PSoC5/USBUART_cdc.h"
 698              		.file 16 "Generated_Source\\PSoC5/ReceiveISR.h"