ARM GAS  C:\Users\winstona\AppData\Local\Temp\ccpY8M8W.s 			page 1


   1              		.syntax unified
   2              		.cpu cortex-m3
   3              		.fpu softvfp
   4              		.eabi_attribute 20, 1
   5              		.eabi_attribute 21, 1
   6              		.eabi_attribute 23, 3
   7              		.eabi_attribute 24, 1
   8              		.eabi_attribute 25, 1
   9              		.eabi_attribute 26, 1
  10              		.eabi_attribute 30, 1
  11              		.eabi_attribute 34, 1
  12              		.eabi_attribute 18, 4
  13              		.thumb
  14              		.syntax unified
  15              		.file	"main.c"
  16              		.text
  17              	.Ltext0:
  18              		.cfi_sections	.debug_frame
  19              		.section	.text.ReceiveInterruptHandler,"ax",%progbits
  20              		.align	2
  21              		.global	ReceiveInterruptHandler
  22              		.thumb
  23              		.thumb_func
  24              		.type	ReceiveInterruptHandler, %function
  25              	ReceiveInterruptHandler:
  26              	.LFB64:
  27              		.file 1 "main.c"
   1:main.c        **** /* ========================================
   2:main.c        ****  * FILENAME: main.c
   3:main.c        ****  * AUTHORS: Tyler Wells, Andy Winston, 
   4:main.c        ****             Kamith Mirissage
   5:main.c        ****  * DATE: 11 DEC 2017
   6:main.c        ****  * PROVIDES:
   7:main.c        ****  * - A PSOC implementation of a system 
   8:main.c        ****  *   that fucntions as a message-exchange 
   9:main.c        ****  *   on CSMA/CD bus using unipolar return
  10:main.c        ****  *   to zero (RZ) line coding 
  11:main.c        ****  * - State machine with  channel monitor
  12:main.c        ****  *   implementation (BUSY/IDLE/COLLISION)
  13:main.c        ****  * - Software pushbutton debouncing used 
  14:main.c        ****  * - LED to signal different states
  15:main.c        ****  * - Interrupt handling for rising and 
  16:main.c        ****   *  edge triggers of a timer
  17:main.c        ****  * ========================================
  18:main.c        **** */
  19:main.c        **** 
  20:main.c        **** #include "project.h"
  21:main.c        **** #include <stdlib.h>
  22:main.c        **** #include <stdbool.h>
  23:main.c        **** #include "stdio.h"
  24:main.c        **** 
  25:main.c        **** #define COLLISION_PERIOD                   52
  26:main.c        **** #define COLLISION_COUNTER                  51
  27:main.c        **** #define IDLE_PERIOD                        830
  28:main.c        **** #define IDLE_COUNTER                       829
  29:main.c        **** 
  30:main.c        **** #define RX_BUFFER_SIZE                     32
ARM GAS  C:\Users\winstona\AppData\Local\Temp\ccpY8M8W.s 			page 2


  31:main.c        **** 
  32:main.c        **** #define NULL_PAD                           1
  33:main.c        **** 
  34:main.c        **** #define MAX_RX_HIGH_TIME_CLK               52
  35:main.c        **** #define EXPECTED_SYMBOL_TIME_CLK           50
  36:main.c        **** #define MIN_RX_HIGH_TIME_CLK               48
  37:main.c        **** 
  38:main.c        **** #define NO_BIT                             8
  39:main.c        **** #define START_BIT                          7
  40:main.c        **** 
  41:main.c        **** 
  42:main.c        **** //States include: 
  43:main.c        **** //Busy - signals that the channel monitor is busy
  44:main.c        **** //       and in either line high or line low 
  45:main.c        **** //Collision - collision detected, line high
  46:main.c        **** //Idle - initialized state looking for rising
  47:main.c        **** //       edge to occur
  48:main.c        **** typedef enum { BUSY, COLLISION, IDLE } State;
  49:main.c        **** State systemState;
  50:main.c        **** 
  51:main.c        **** _Bool logicLevel = 0;
  52:main.c        **** char currentDataCharacter; //current char
  53:main.c        **** int bufferPosition = 0; //serial_pos
  54:main.c        **** unsigned char buffer[500]; //serial buffer
  55:main.c        **** 
  56:main.c        **** // data converted to non-terminated string showing 1s and 0s
  57:main.c        **** unsigned char data[16];
  58:main.c        **** 
  59:main.c        **** int dataSize; //data size
  60:main.c        **** 
  61:main.c        **** // Symbol position in unipolar RZ signal. There are 16 symbols, 2 per bit.
  62:main.c        **** int symbolPosition = 0;
  63:main.c        **** 
  64:main.c        **** int count; //dataConvertedReadOutCount
  65:main.c        **** 
  66:main.c        **** // bit pos in transmitted character (0 is MSB, 6 is LSB, excludes start bit)
  67:main.c        **** int idx = 0;
  68:main.c        **** 
  69:main.c        **** /******************************************************
  70:main.c        **** Receiving character logic variables
  71:main.c        **** ******************************************************/
  72:main.c        **** //Which RX bit occurred during last HI period. 8 if no bit received yet.
  73:main.c        **** uint8_t rxBit = 8;
  74:main.c        **** // Buffer for receiving text.
  75:main.c        **** // TODO Adjust size of buffer. See if buffer is even necessary.
  76:main.c        **** //char rxBuffer[RX_BUFFER_SIZE + NULL_PAD];
  77:main.c        **** //char *rxBufferPos; // Current char position.
  78:main.c        **** char currRxChar;
  79:main.c        ****     
  80:main.c        ****     
  81:main.c        **** /*******************************************************************************
  82:main.c        **** * Define Interrupt service routine and allocate an vector to the Interrupt
  83:main.c        **** ********************************************************************************/
  84:main.c        **** 
  85:main.c        ****  /**********************************************************
  86:main.c        ****  * function name: ReceiveInterruptHandler
  87:main.c        ****  * operation: Handles interrupt timer if the timer expires
ARM GAS  C:\Users\winstona\AppData\Local\Temp\ccpY8M8W.s 			page 3


  88:main.c        ****  *            indicates an idle condition or colllision
  89:main.c        ****  *            reads the logic levon the input pin/signal
  90:main.c        ****  *            high -> collision set
  91:main.c        ****  *            low -> idle set
  92:main.c        ****  * inputs: none
  93:main.c        ****  * returns: none
  94:main.c        ****  * implemented: 14 Dec 2017
  95:main.c        ****  * edited:
  96:main.c        ****  *********************************************************/ 
  97:main.c        **** CY_ISR(ReceiveInterruptHandler)
  98:main.c        **** {
  28              		.loc 1 98 0
  29              		.cfi_startproc
  30              		@ args = 0, pretend = 0, frame = 0
  31              		@ frame_needed = 0, uses_anonymous_args = 0
  32 0000 08B5     		push	{r3, lr}
  33              		.cfi_def_cfa_offset 8
  34              		.cfi_offset 3, -8
  35              		.cfi_offset 14, -4
  99:main.c        ****    	TimerRX_STATUS; 
  36              		.loc 1 99 0
  37 0002 0F4B     		ldr	r3, .L5
  38 0004 1B78     		ldrb	r3, [r3]	@ zero_extendqisi2
 100:main.c        ****     if (logicLevel) {
  39              		.loc 1 100 0
  40 0006 0F4B     		ldr	r3, .L5+4
  41 0008 1B78     		ldrb	r3, [r3]	@ zero_extendqisi2
  42 000a 5BB1     		cbz	r3, .L2
 101:main.c        ****         systemState = COLLISION;
  43              		.loc 1 101 0
  44 000c 0120     		movs	r0, #1
  45 000e 0E4B     		ldr	r3, .L5+8
  46 0010 1870     		strb	r0, [r3]
 102:main.c        ****         COLLISION_Write(1);
  47              		.loc 1 102 0
  48 0012 FFF7FEFF 		bl	COLLISION_Write
  49              	.LVL0:
 103:main.c        ****         IDLE_Write(0);
  50              		.loc 1 103 0
  51 0016 0020     		movs	r0, #0
  52 0018 FFF7FEFF 		bl	IDLE_Write
  53              	.LVL1:
 104:main.c        ****         BUSY_Write(0);
  54              		.loc 1 104 0
  55 001c 0020     		movs	r0, #0
  56 001e FFF7FEFF 		bl	BUSY_Write
  57              	.LVL2:
  58 0022 08BD     		pop	{r3, pc}
  59              	.L2:
 105:main.c        ****     } else {
 106:main.c        ****         systemState = IDLE;
  60              		.loc 1 106 0
  61 0024 0222     		movs	r2, #2
  62 0026 084B     		ldr	r3, .L5+8
  63 0028 1A70     		strb	r2, [r3]
 107:main.c        ****         COLLISION_Write(0);
  64              		.loc 1 107 0
ARM GAS  C:\Users\winstona\AppData\Local\Temp\ccpY8M8W.s 			page 4


  65 002a 0020     		movs	r0, #0
  66 002c FFF7FEFF 		bl	COLLISION_Write
  67              	.LVL3:
 108:main.c        ****         IDLE_Write(1);
  68              		.loc 1 108 0
  69 0030 0120     		movs	r0, #1
  70 0032 FFF7FEFF 		bl	IDLE_Write
  71              	.LVL4:
 109:main.c        ****         BUSY_Write(0);
  72              		.loc 1 109 0
  73 0036 0020     		movs	r0, #0
  74 0038 FFF7FEFF 		bl	BUSY_Write
  75              	.LVL5:
  76 003c 08BD     		pop	{r3, pc}
  77              	.L6:
  78 003e 00BF     		.align	2
  79              	.L5:
  80 0040 67640040 		.word	1073767527
  81 0044 00000000 		.word	.LANCHOR0
  82 0048 00000000 		.word	systemState
  83              		.cfi_endproc
  84              	.LFE64:
  85              		.size	ReceiveInterruptHandler, .-ReceiveInterruptHandler
  86              		.section	.text.RisingEdgeInterruptHandler,"ax",%progbits
  87              		.align	2
  88              		.global	RisingEdgeInterruptHandler
  89              		.thumb
  90              		.thumb_func
  91              		.type	RisingEdgeInterruptHandler, %function
  92              	RisingEdgeInterruptHandler:
  93              	.LFB65:
 110:main.c        ****     }
 111:main.c        **** }
 112:main.c        **** 
 113:main.c        **** 
 114:main.c        ****  /**********************************************************
 115:main.c        ****  * function name: RisingEdgeInterruptHandler
 116:main.c        ****  * operation: Handles interrupt for when a rising edge on 
 117:main.c        ****  *            the timer occurs. Triggers system to look for
 118:main.c        ****  *            falling edge (1 -> 0). Schedules a timer
 119:main.c        ****  *            interupt to occur in .6ms and sets state to 
 120:main.c        ****  *            busy
 121:main.c        ****  * inputs: none
 122:main.c        ****  * returns: none
 123:main.c        ****  * implemented: 14 Dec 2017
 124:main.c        ****  * edited:
 125:main.c        ****  *********************************************************/ 
 126:main.c        **** CY_ISR(RisingEdgeInterruptHandler)
 127:main.c        **** {
  94              		.loc 1 127 0
  95              		.cfi_startproc
  96              		@ args = 0, pretend = 0, frame = 0
  97              		@ frame_needed = 0, uses_anonymous_args = 0
 128:main.c        ****     if ((!logicLevel)){
  98              		.loc 1 128 0
  99 0000 0F4B     		ldr	r3, .L11
 100 0002 1B78     		ldrb	r3, [r3]	@ zero_extendqisi2
ARM GAS  C:\Users\winstona\AppData\Local\Temp\ccpY8M8W.s 			page 5


 101 0004 DBB9     		cbnz	r3, .L10
 127:main.c        ****     if ((!logicLevel)){
 102              		.loc 1 127 0
 103 0006 10B5     		push	{r4, lr}
 104              		.cfi_def_cfa_offset 8
 105              		.cfi_offset 4, -8
 106              		.cfi_offset 14, -4
 129:main.c        ****         RisingEdgeISR_ClearPending();
 107              		.loc 1 129 0
 108 0008 FFF7FEFF 		bl	RisingEdgeISR_ClearPending
 109              	.LVL6:
 130:main.c        ****         TimerRX_Stop();
 110              		.loc 1 130 0
 111 000c FFF7FEFF 		bl	TimerRX_Stop
 112              	.LVL7:
 131:main.c        ****         TimerRX_WritePeriod(COLLISION_PERIOD);
 113              		.loc 1 131 0
 114 0010 3420     		movs	r0, #52
 115 0012 FFF7FEFF 		bl	TimerRX_WritePeriod
 116              	.LVL8:
 132:main.c        ****         TimerRX_WriteCounter(COLLISION_COUNTER);
 117              		.loc 1 132 0
 118 0016 3320     		movs	r0, #51
 119 0018 FFF7FEFF 		bl	TimerRX_WriteCounter
 120              	.LVL9:
 133:main.c        ****         TimerRX_Start();
 121              		.loc 1 133 0
 122 001c FFF7FEFF 		bl	TimerRX_Start
 123              	.LVL10:
 134:main.c        ****         logicLevel = 1;
 124              		.loc 1 134 0
 125 0020 0120     		movs	r0, #1
 126 0022 074B     		ldr	r3, .L11
 127 0024 1870     		strb	r0, [r3]
 135:main.c        ****         systemState = BUSY;
 128              		.loc 1 135 0
 129 0026 0024     		movs	r4, #0
 130 0028 064B     		ldr	r3, .L11+4
 131 002a 1C70     		strb	r4, [r3]
 136:main.c        ****         BUSY_Write(1);
 132              		.loc 1 136 0
 133 002c FFF7FEFF 		bl	BUSY_Write
 134              	.LVL11:
 137:main.c        ****         COLLISION_Write(0);
 135              		.loc 1 137 0
 136 0030 2046     		mov	r0, r4
 137 0032 FFF7FEFF 		bl	COLLISION_Write
 138              	.LVL12:
 138:main.c        ****         IDLE_Write(0);
 139              		.loc 1 138 0
 140 0036 2046     		mov	r0, r4
 141 0038 FFF7FEFF 		bl	IDLE_Write
 142              	.LVL13:
 143 003c 10BD     		pop	{r4, pc}
 144              	.L10:
 145              		.cfi_def_cfa_offset 0
 146              		.cfi_restore 4
ARM GAS  C:\Users\winstona\AppData\Local\Temp\ccpY8M8W.s 			page 6


 147              		.cfi_restore 14
 148 003e 7047     		bx	lr
 149              	.L12:
 150              		.align	2
 151              	.L11:
 152 0040 00000000 		.word	.LANCHOR0
 153 0044 00000000 		.word	systemState
 154              		.cfi_endproc
 155              	.LFE65:
 156              		.size	RisingEdgeInterruptHandler, .-RisingEdgeInterruptHandler
 157              		.section	.text.FallingEdgeInterruptHandler,"ax",%progbits
 158              		.align	2
 159              		.global	FallingEdgeInterruptHandler
 160              		.thumb
 161              		.thumb_func
 162              		.type	FallingEdgeInterruptHandler, %function
 163              	FallingEdgeInterruptHandler:
 164              	.LFB66:
 139:main.c        ****     }
 140:main.c        **** }
 141:main.c        ****  
 142:main.c        **** 
 143:main.c        ****  /**********************************************************
 144:main.c        ****  * function name: FallingEdgeInterruptHandler
 145:main.c        ****  * operation: Handles interrupt for when a falling edge on 
 146:main.c        ****  *            the timer occurs. Triggers system to look for
 147:main.c        ****  *            rising edge (0 -> 1). Schedules a timer
 148:main.c        ****  *            interupt to occur in 7.7 ms and sets state to 
 149:main.c        ****  *            busy
 150:main.c        ****  * inputs: none
 151:main.c        ****  * returns: none
 152:main.c        ****  * implemented: 14 Dec 2017
 153:main.c        ****  * edited:
 154:main.c        ****  *********************************************************/ 
 155:main.c        **** CY_ISR(FallingEdgeInterruptHandler)
 156:main.c        **** {
 165              		.loc 1 156 0
 166              		.cfi_startproc
 167              		@ args = 0, pretend = 0, frame = 0
 168              		@ frame_needed = 0, uses_anonymous_args = 0
 157:main.c        ****     if (logicLevel) {
 169              		.loc 1 157 0
 170 0000 104B     		ldr	r3, .L17
 171 0002 1B78     		ldrb	r3, [r3]	@ zero_extendqisi2
 172 0004 EBB1     		cbz	r3, .L16
 156:main.c        ****     if (logicLevel) {
 173              		.loc 1 156 0
 174 0006 10B5     		push	{r4, lr}
 175              		.cfi_def_cfa_offset 8
 176              		.cfi_offset 4, -8
 177              		.cfi_offset 14, -4
 158:main.c        ****         FallingEdgeISR_ClearPending();
 178              		.loc 1 158 0
 179 0008 FFF7FEFF 		bl	FallingEdgeISR_ClearPending
 180              	.LVL14:
 159:main.c        ****         TimerRX_Stop();
 181              		.loc 1 159 0
ARM GAS  C:\Users\winstona\AppData\Local\Temp\ccpY8M8W.s 			page 7


 182 000c FFF7FEFF 		bl	TimerRX_Stop
 183              	.LVL15:
 160:main.c        ****         TimerRX_WritePeriod(IDLE_PERIOD);
 184              		.loc 1 160 0
 185 0010 40F23E30 		movw	r0, #830
 186 0014 FFF7FEFF 		bl	TimerRX_WritePeriod
 187              	.LVL16:
 161:main.c        ****         TimerRX_WriteCounter(IDLE_COUNTER);
 188              		.loc 1 161 0
 189 0018 40F23D30 		movw	r0, #829
 190 001c FFF7FEFF 		bl	TimerRX_WriteCounter
 191              	.LVL17:
 162:main.c        ****         TimerRX_Start();
 192              		.loc 1 162 0
 193 0020 FFF7FEFF 		bl	TimerRX_Start
 194              	.LVL18:
 163:main.c        ****         logicLevel = 0;
 195              		.loc 1 163 0
 196 0024 0024     		movs	r4, #0
 197 0026 074B     		ldr	r3, .L17
 198 0028 1C70     		strb	r4, [r3]
 164:main.c        ****         systemState = BUSY;
 199              		.loc 1 164 0
 200 002a 074B     		ldr	r3, .L17+4
 201 002c 1C70     		strb	r4, [r3]
 165:main.c        ****         BUSY_Write(1);
 202              		.loc 1 165 0
 203 002e 0120     		movs	r0, #1
 204 0030 FFF7FEFF 		bl	BUSY_Write
 205              	.LVL19:
 166:main.c        ****         COLLISION_Write(0);
 206              		.loc 1 166 0
 207 0034 2046     		mov	r0, r4
 208 0036 FFF7FEFF 		bl	COLLISION_Write
 209              	.LVL20:
 167:main.c        ****         IDLE_Write(0);
 210              		.loc 1 167 0
 211 003a 2046     		mov	r0, r4
 212 003c FFF7FEFF 		bl	IDLE_Write
 213              	.LVL21:
 214 0040 10BD     		pop	{r4, pc}
 215              	.L16:
 216              		.cfi_def_cfa_offset 0
 217              		.cfi_restore 4
 218              		.cfi_restore 14
 219 0042 7047     		bx	lr
 220              	.L18:
 221              		.align	2
 222              	.L17:
 223 0044 00000000 		.word	.LANCHOR0
 224 0048 00000000 		.word	systemState
 225              		.cfi_endproc
 226              	.LFE66:
 227              		.size	FallingEdgeInterruptHandler, .-FallingEdgeInterruptHandler
 228              		.section	.text.TransmitInterruptHandler,"ax",%progbits
 229              		.align	2
 230              		.global	TransmitInterruptHandler
ARM GAS  C:\Users\winstona\AppData\Local\Temp\ccpY8M8W.s 			page 8


 231              		.thumb
 232              		.thumb_func
 233              		.type	TransmitInterruptHandler, %function
 234              	TransmitInterruptHandler:
 235              	.LFB67:
 168:main.c        ****     }
 169:main.c        **** }
 170:main.c        **** 
 171:main.c        **** 
 172:main.c        **** 
 173:main.c        **** 
 174:main.c        ****  /**********************************************************
 175:main.c        ****  * function name: TransmitInterruptHandler
 176:main.c        ****  * operation: Handles interrupt for transmition of data
 177:main.c        ****  * inputs: none
 178:main.c        ****  * returns: none
 179:main.c        ****  * implemented: 10 Jan 2018
 180:main.c        ****  * edited:
 181:main.c        ****  *********************************************************/
 182:main.c        **** CY_ISR(TransmitInterruptHandler)
 183:main.c        **** {
 236              		.loc 1 183 0
 237              		.cfi_startproc
 238              		@ args = 0, pretend = 0, frame = 0
 239              		@ frame_needed = 0, uses_anonymous_args = 0
 240 0000 08B5     		push	{r3, lr}
 241              		.cfi_def_cfa_offset 8
 242              		.cfi_offset 3, -8
 243              		.cfi_offset 14, -4
 184:main.c        ****     TimerTX_STATUS;
 244              		.loc 1 184 0
 245 0002 2A4B     		ldr	r3, .L27
 246 0004 1B78     		ldrb	r3, [r3]	@ zero_extendqisi2
 185:main.c        **** 	currentDataCharacter = buffer[bufferPosition];  
 247              		.loc 1 185 0
 248 0006 2A4B     		ldr	r3, .L27+4
 249 0008 5B68     		ldr	r3, [r3, #4]
 250 000a 2A4A     		ldr	r2, .L27+8
 251 000c D25C     		ldrb	r2, [r2, r3]	@ zero_extendqisi2
 252 000e 2A49     		ldr	r1, .L27+12
 253 0010 0A70     		strb	r2, [r1]
 186:main.c        **** 	if(bufferPosition < dataSize) { 
 254              		.loc 1 186 0
 255 0012 2A49     		ldr	r1, .L27+16
 256 0014 0968     		ldr	r1, [r1]
 257 0016 8B42     		cmp	r3, r1
 258 0018 47DA     		bge	.L19
 187:main.c        ****         // Always send 1 in first part of start bit.
 188:main.c        **** 	    if(symbolPosition == 0) {
 259              		.loc 1 188 0
 260 001a 254B     		ldr	r3, .L27+4
 261 001c 9B68     		ldr	r3, [r3, #8]
 262 001e 43B9     		cbnz	r3, .L21
 189:main.c        ****     		TRANSMIT_Write(1);
 263              		.loc 1 189 0
 264 0020 0120     		movs	r0, #1
 265 0022 FFF7FEFF 		bl	TRANSMIT_Write
ARM GAS  C:\Users\winstona\AppData\Local\Temp\ccpY8M8W.s 			page 9


 266              	.LVL22:
 190:main.c        ****     		data[symbolPosition] = '1';
 267              		.loc 1 190 0
 268 0026 224B     		ldr	r3, .L27+4
 269 0028 9B68     		ldr	r3, [r3, #8]
 270 002a 3121     		movs	r1, #49
 271 002c 244A     		ldr	r2, .L27+20
 272 002e D154     		strb	r1, [r2, r3]
 273 0030 28E0     		b	.L22
 274              	.L21:
 191:main.c        ****         // At second half of each bit, return to 0.
 192:main.c        ****     	} else if(symbolPosition % 2 != 0){
 275              		.loc 1 192 0
 276 0032 13F0010F 		tst	r3, #1
 277 0036 08D0     		beq	.L23
 193:main.c        ****     		TRANSMIT_Write(0);
 278              		.loc 1 193 0
 279 0038 0020     		movs	r0, #0
 280 003a FFF7FEFF 		bl	TRANSMIT_Write
 281              	.LVL23:
 194:main.c        ****     		data[symbolPosition] = '0';
 282              		.loc 1 194 0
 283 003e 1C4B     		ldr	r3, .L27+4
 284 0040 9B68     		ldr	r3, [r3, #8]
 285 0042 3021     		movs	r1, #48
 286 0044 1E4A     		ldr	r2, .L27+20
 287 0046 D154     		strb	r1, [r2, r3]
 288 0048 1CE0     		b	.L22
 289              	.L23:
 195:main.c        ****         // All other cases, high or low depending on bit
 196:main.c        ****     	} else {
 197:main.c        ****     		if(currentDataCharacter & (1 << (6 - idx))){
 290              		.loc 1 197 0
 291 004a 194B     		ldr	r3, .L27+4
 292 004c DB68     		ldr	r3, [r3, #12]
 293 004e C3F10603 		rsb	r3, r3, #6
 294 0052 1A41     		asrs	r2, r2, r3
 295 0054 12F0010F 		tst	r2, #1
 296 0058 08D0     		beq	.L24
 198:main.c        ****     			TRANSMIT_Write(1);
 297              		.loc 1 198 0
 298 005a 0120     		movs	r0, #1
 299 005c FFF7FEFF 		bl	TRANSMIT_Write
 300              	.LVL24:
 199:main.c        ****     			data[symbolPosition] = '1';
 301              		.loc 1 199 0
 302 0060 134B     		ldr	r3, .L27+4
 303 0062 9B68     		ldr	r3, [r3, #8]
 304 0064 3121     		movs	r1, #49
 305 0066 164A     		ldr	r2, .L27+20
 306 0068 D154     		strb	r1, [r2, r3]
 307 006a 07E0     		b	.L25
 308              	.L24:
 200:main.c        ****     		}else{
 201:main.c        ****     			TRANSMIT_Write(0);
 309              		.loc 1 201 0
 310 006c 0020     		movs	r0, #0
ARM GAS  C:\Users\winstona\AppData\Local\Temp\ccpY8M8W.s 			page 10


 311 006e FFF7FEFF 		bl	TRANSMIT_Write
 312              	.LVL25:
 202:main.c        ****     			data[symbolPosition] = '0';   
 313              		.loc 1 202 0
 314 0072 0F4B     		ldr	r3, .L27+4
 315 0074 9B68     		ldr	r3, [r3, #8]
 316 0076 3021     		movs	r1, #48
 317 0078 114A     		ldr	r2, .L27+20
 318 007a D154     		strb	r1, [r2, r3]
 319              	.L25:
 203:main.c        ****     		}
 204:main.c        ****     		++idx;
 320              		.loc 1 204 0
 321 007c 0C4A     		ldr	r2, .L27+4
 322 007e D368     		ldr	r3, [r2, #12]
 323 0080 0133     		adds	r3, r3, #1
 324 0082 D360     		str	r3, [r2, #12]
 325              	.L22:
 205:main.c        ****     	}
 206:main.c        ****         CyDelayUs(450);
 326              		.loc 1 206 0
 327 0084 4FF4E170 		mov	r0, #450
 328 0088 FFF7FEFF 		bl	CyDelayUs
 329              	.LVL26:
 207:main.c        ****         ++symbolPosition;
 330              		.loc 1 207 0
 331 008c 084A     		ldr	r2, .L27+4
 332 008e 9368     		ldr	r3, [r2, #8]
 333 0090 0133     		adds	r3, r3, #1
 334 0092 9360     		str	r3, [r2, #8]
 208:main.c        ****         if(symbolPosition >= 16) {
 335              		.loc 1 208 0
 336 0094 0F2B     		cmp	r3, #15
 337 0096 08DD     		ble	.L19
 209:main.c        ****     	    ++bufferPosition;
 338              		.loc 1 209 0
 339 0098 1346     		mov	r3, r2
 340 009a 5268     		ldr	r2, [r2, #4]
 341 009c 0132     		adds	r2, r2, #1
 342 009e 5A60     		str	r2, [r3, #4]
 210:main.c        ****     	    idx = 0;
 343              		.loc 1 210 0
 344 00a0 0020     		movs	r0, #0
 345 00a2 D860     		str	r0, [r3, #12]
 211:main.c        ****     	    symbolPosition = 0;
 346              		.loc 1 211 0
 347 00a4 9860     		str	r0, [r3, #8]
 212:main.c        ****             TRANSMIT_Write(0);
 348              		.loc 1 212 0
 349 00a6 FFF7FEFF 		bl	TRANSMIT_Write
 350              	.LVL27:
 351              	.L19:
 352 00aa 08BD     		pop	{r3, pc}
 353              	.L28:
 354              		.align	2
 355              	.L27:
 356 00ac 65650040 		.word	1073767781
ARM GAS  C:\Users\winstona\AppData\Local\Temp\ccpY8M8W.s 			page 11


 357 00b0 00000000 		.word	.LANCHOR0
 358 00b4 00000000 		.word	buffer
 359 00b8 00000000 		.word	currentDataCharacter
 360 00bc 00000000 		.word	dataSize
 361 00c0 00000000 		.word	data
 362              		.cfi_endproc
 363              	.LFE67:
 364              		.size	TransmitInterruptHandler, .-TransmitInterruptHandler
 365              		.section	.text.main,"ax",%progbits
 366              		.align	2
 367              		.global	main
 368              		.thumb
 369              		.thumb_func
 370              		.type	main, %function
 371              	main:
 372              	.LFB68:
 213:main.c        ****         }
 214:main.c        ****     }
 215:main.c        **** }
 216:main.c        **** 
 217:main.c        ****  /**********************************************************
 218:main.c        ****  * function name: main
 219:main.c        ****  * operation: Handles the main state machine diagram for the
 220:main.c        ****  *            system. Changes  states when needed and calls
 221:main.c        ****  *            appropriate interrupt routines when triggered.                
 222:main.c        ****  * inputs: none
 223:main.c        ****  * returns: none
 224:main.c        ****  * implemented: 14 Dec 2017
 225:main.c        ****  * edited:
 226:main.c        ****  *********************************************************/ 
 227:main.c        **** int main(void)
 228:main.c        **** {
 373              		.loc 1 228 0
 374              		.cfi_startproc
 375              		@ args = 0, pretend = 0, frame = 0
 376              		@ frame_needed = 0, uses_anonymous_args = 0
 377 0000 70B5     		push	{r4, r5, r6, lr}
 378              		.cfi_def_cfa_offset 16
 379              		.cfi_offset 4, -16
 380              		.cfi_offset 5, -12
 381              		.cfi_offset 6, -8
 382              		.cfi_offset 14, -4
 229:main.c        ****     //systemState = IDLE;
 230:main.c        ****     CyGlobalIntEnable;
 383              		.loc 1 230 0
 384              		.syntax unified
 385              	@ 230 "main.c" 1
 386 0002 62B6     		CPSIE   i
 387              	@ 0 "" 2
 231:main.c        ****     RisingEdgeISR_StartEx(RisingEdgeInterruptHandler);
 388              		.loc 1 231 0
 389              		.thumb
 390              		.syntax unified
 391 0004 4E48     		ldr	r0, .L43
 392 0006 FFF7FEFF 		bl	RisingEdgeISR_StartEx
 393              	.LVL28:
 232:main.c        ****     FallingEdgeISR_StartEx(FallingEdgeInterruptHandler);
ARM GAS  C:\Users\winstona\AppData\Local\Temp\ccpY8M8W.s 			page 12


 394              		.loc 1 232 0
 395 000a 4E48     		ldr	r0, .L43+4
 396 000c FFF7FEFF 		bl	FallingEdgeISR_StartEx
 397              	.LVL29:
 233:main.c        **** //    TimerTX_Start();
 234:main.c        **** //    TimerTX_WritePeriod(45);
 235:main.c        **** //    TimerTX_WriteCounter(44);
 236:main.c        ****     ReceiveISR_StartEx(ReceiveInterruptHandler);
 398              		.loc 1 236 0
 399 0010 4D48     		ldr	r0, .L43+8
 400 0012 FFF7FEFF 		bl	ReceiveISR_StartEx
 401              	.LVL30:
 237:main.c        **** //    TransmitISR_StartEx(TransmitInterruptHandler);
 238:main.c        **** 
 239:main.c        ****     // rxBufferPos = rxBuffer;
 240:main.c        ****     
 241:main.c        ****     USBUART_Start(USBUART_device, USBUART_5V_OPERATION);
 402              		.loc 1 241 0
 403 0016 4D4B     		ldr	r3, .L43+12
 404 0018 1878     		ldrb	r0, [r3]	@ zero_extendqisi2
 405 001a 0121     		movs	r1, #1
 406 001c FFF7FEFF 		bl	USBUART_Start
 407              	.LVL31:
 408              	.L30:
 409              	.LBB2:
 242:main.c        ****     
 243:main.c        ****     while (true) {
 244:main.c        ****         State localState = systemState; // Save in case of preemption.
 410              		.loc 1 244 0
 411 0020 4B4B     		ldr	r3, .L43+16
 412 0022 1B78     		ldrb	r3, [r3]	@ zero_extendqisi2
 413              	.LVL32:
 245:main.c        ****         // TODO Make this code conditional so it doesn't check
 246:main.c        ****         // for a new bit unless something special happened.
 247:main.c        ****         // This code should only run when an edge was detected.
 248:main.c        ****         // TODO Make other code for when state changes to COLLISION
 249:main.c        ****         // or IDLE.
 250:main.c        ****         
 251:main.c        ****         // Save this locally in case of preemption.
 252:main.c        ****         if (localState == BUSY) {
 414              		.loc 1 252 0
 415 0024 002B     		cmp	r3, #0
 416 0026 73D1     		bne	.L31
 253:main.c        ****             if (TimerRX_STATUS & TimerRX_STATUS_FIFONEMP) {
 417              		.loc 1 253 0
 418 0028 4A4B     		ldr	r3, .L43+20
 419              	.LVL33:
 420 002a 1B78     		ldrb	r3, [r3]	@ zero_extendqisi2
 421 002c 13F0080F 		tst	r3, #8
 422 0030 F6D0     		beq	.L30
 423              	.LBB3:
 254:main.c        ****                 bool risingEdge = logicLevel;
 424              		.loc 1 254 0
 425 0032 494B     		ldr	r3, .L43+24
 426 0034 1C78     		ldrb	r4, [r3]	@ zero_extendqisi2
 427              	.LVL34:
 255:main.c        ****                 uint16_t inputCaptureTime = TimerRX_ReadCapture();
ARM GAS  C:\Users\winstona\AppData\Local\Temp\ccpY8M8W.s 			page 13


 428              		.loc 1 255 0
 429 0036 FFF7FEFF 		bl	TimerRX_ReadCapture
 430              	.LVL35:
 256:main.c        ****                 // Error detection. Caused by too many successive IRQs.
 257:main.c        ****                 if (TimerRX_STATUS & TimerRX_STATUS_FIFONEMP) {
 431              		.loc 1 257 0
 432 003a 464B     		ldr	r3, .L43+20
 433 003c 1B78     		ldrb	r3, [r3]	@ zero_extendqisi2
 434 003e 13F0080F 		tst	r3, #8
 435 0042 0CD0     		beq	.L33
 258:main.c        ****                     // Error state. Stop interpreting received data until idle.
 259:main.c        ****                     rxBit = NO_BIT;
 436              		.loc 1 259 0
 437 0044 0822     		movs	r2, #8
 438 0046 454B     		ldr	r3, .L43+28
 439 0048 1A70     		strb	r2, [r3]
 260:main.c        ****                     currRxChar = '\0';
 440              		.loc 1 260 0
 441 004a 0022     		movs	r2, #0
 442 004c 444B     		ldr	r3, .L43+32
 443 004e 1A70     		strb	r2, [r3]
 444              	.L34:
 261:main.c        ****                     while (systemState != IDLE);
 445              		.loc 1 261 0 discriminator 1
 446 0050 3F4B     		ldr	r3, .L43+16
 447 0052 1B78     		ldrb	r3, [r3]	@ zero_extendqisi2
 448 0054 022B     		cmp	r3, #2
 449 0056 FBD1     		bne	.L34
 262:main.c        ****                     TimerRX_ClearFIFO();
 450              		.loc 1 262 0
 451 0058 FFF7FEFF 		bl	TimerRX_ClearFIFO
 452              	.LVL36:
 453 005c E0E7     		b	.L30
 454              	.LVL37:
 455              	.L33:
 263:main.c        ****                 } else {
 264:main.c        ****                     // This code should do bit shifting (or byte shifting if necessary)
 265:main.c        ****                     // on the rising edge.
 266:main.c        ****                     // On the falling edge, after proper high length was confirmed, the
 267:main.c        ****                     // appropriate bit should be set.
 268:main.c        ****                     if (risingEdge) { // Was last low
 456              		.loc 1 268 0
 457 005e 002C     		cmp	r4, #0
 458 0060 44D0     		beq	.L35
 459              	.LBB4:
 269:main.c        ****                         if (rxBit == 8) {
 460              		.loc 1 269 0
 461 0062 3E4B     		ldr	r3, .L43+28
 462 0064 1C78     		ldrb	r4, [r3]	@ zero_extendqisi2
 463              	.LVL38:
 464 0066 082C     		cmp	r4, #8
 465 0068 02D1     		bne	.L36
 270:main.c        ****                             rxBit--;
 466              		.loc 1 270 0
 467 006a 013C     		subs	r4, r4, #1
 468 006c 1C70     		strb	r4, [r3]
 271:main.c        ****                             continue;
ARM GAS  C:\Users\winstona\AppData\Local\Temp\ccpY8M8W.s 			page 14


 469              		.loc 1 271 0
 470 006e D7E7     		b	.L30
 471              	.L36:
 272:main.c        ****                         }
 273:main.c        ****                         int timeClk = IDLE_COUNTER - inputCaptureTime;
 472              		.loc 1 273 0
 473 0070 C0F54F71 		rsb	r1, r0, #828
 474 0074 0131     		adds	r1, r1, #1
 475              	.LVL39:
 274:main.c        ****                         int symbolClkCycles = timeClk % EXPECTED_SYMBOL_TIME_CLK;
 476              		.loc 1 274 0
 477 0076 3B4A     		ldr	r2, .L43+36
 478 0078 82FB0132 		smull	r3, r2, r2, r1
 479 007c 1211     		asrs	r2, r2, #4
 480 007e CB17     		asrs	r3, r1, #31
 481 0080 D51A     		subs	r5, r2, r3
 482 0082 3226     		movs	r6, #50
 483 0084 06FB1515 		mls	r5, r6, r5, r1
 484              	.LVL40:
 275:main.c        ****                         // Find out the nearest rounding of symbol time.
 276:main.c        ****                         int nearestNumSymbols = timeClk / EXPECTED_SYMBOL_TIME_CLK
 485              		.loc 1 276 0
 486 0088 D21A     		subs	r2, r2, r3
 487 008a 182D     		cmp	r5, #24
 488 008c D4BF     		ite	le
 489 008e 1346     		movle	r3, r2
 490 0090 531C     		addgt	r3, r2, #1
 491              	.LVL41:
 277:main.c        ****                         + ((symbolClkCycles >= EXPECTED_SYMBOL_TIME_CLK / 2) ? 1 : 0);
 278:main.c        ****                         int bitsToShift = nearestNumSymbols / 2;
 492              		.loc 1 278 0
 493 0092 03EBD372 		add	r2, r3, r3, lsr #31
 494 0096 5210     		asrs	r2, r2, #1
 495              	.LVL42:
 279:main.c        ****                         if (bitsToShift > rxBit) {
 496              		.loc 1 279 0
 497 0098 A242     		cmp	r2, r4
 498 009a 09DD     		ble	.L37
 280:main.c        ****                             rxBit = START_BIT;
 499              		.loc 1 280 0
 500 009c 0722     		movs	r2, #7
 501              	.LVL43:
 502 009e 2F4B     		ldr	r3, .L43+28
 503              	.LVL44:
 504 00a0 1A70     		strb	r2, [r3]
 281:main.c        ****                             USBUART_PutChar(currRxChar);
 505              		.loc 1 281 0
 506 00a2 2F4C     		ldr	r4, .L43+32
 507 00a4 2078     		ldrb	r0, [r4]	@ zero_extendqisi2
 508              	.LVL45:
 509 00a6 FFF7FEFF 		bl	USBUART_PutChar
 510              	.LVL46:
 282:main.c        ****                             currRxChar = '\0';
 511              		.loc 1 282 0
 512 00aa 0023     		movs	r3, #0
 513 00ac 2370     		strb	r3, [r4]
 283:main.c        ****     //                        rxBufferPos++;
ARM GAS  C:\Users\winstona\AppData\Local\Temp\ccpY8M8W.s 			page 15


 284:main.c        ****     //                        *rxBufferPos = '\0'; // Nullify new buffer pos.
 285:main.c        ****                             continue;
 514              		.loc 1 285 0
 515 00ae B7E7     		b	.L30
 516              	.LVL47:
 517              	.L37:
 286:main.c        ****                         }
 287:main.c        ****                         // Improper number of symbols between highs.
 288:main.c        ****                         if ((nearestNumSymbols <= 0)
 518              		.loc 1 288 0
 519 00b0 002B     		cmp	r3, #0
 520 00b2 0CDD     		ble	.L38
 289:main.c        ****                         || (nearestNumSymbols % 2 == 0) // Even num of symbols
 521              		.loc 1 289 0
 522 00b4 13F0010F 		tst	r3, #1
 523 00b8 09D0     		beq	.L38
 290:main.c        ****                         // Below appropraite min
 291:main.c        ****                         || (inputCaptureTime < 
 292:main.c        ****                         (unsigned) nearestNumSymbols * MIN_RX_HIGH_TIME_CLK) 
 524              		.loc 1 292 0
 525 00ba 03EB4305 		add	r5, r3, r3, lsl #1
 526              	.LVL48:
 527 00be 2901     		lsls	r1, r5, #4
 528              	.LVL49:
 291:main.c        ****                         (unsigned) nearestNumSymbols * MIN_RX_HIGH_TIME_CLK) 
 529              		.loc 1 291 0
 530 00c0 8842     		cmp	r0, r1
 531 00c2 04D3     		bcc	.L38
 293:main.c        ****                         // Below appropriate min
 294:main.c        ****                         || (inputCaptureTime > 
 295:main.c        ****                         (unsigned) nearestNumSymbols * MAX_RX_HIGH_TIME_CLK)) {
 532              		.loc 1 295 0
 533 00c4 3421     		movs	r1, #52
 534 00c6 01FB03F3 		mul	r3, r1, r3
 535              	.LVL50:
 294:main.c        ****                         (unsigned) nearestNumSymbols * MAX_RX_HIGH_TIME_CLK)) {
 536              		.loc 1 294 0
 537 00ca 9842     		cmp	r0, r3
 538 00cc 0AD9     		bls	.L39
 539              	.L38:
 296:main.c        ****                             // Error state.
 297:main.c        ****                             rxBit = NO_BIT;
 540              		.loc 1 297 0
 541 00ce 0822     		movs	r2, #8
 542              	.LVL51:
 543 00d0 224B     		ldr	r3, .L43+28
 544 00d2 1A70     		strb	r2, [r3]
 298:main.c        ****                             currRxChar = '\0';
 545              		.loc 1 298 0
 546 00d4 0022     		movs	r2, #0
 547 00d6 224B     		ldr	r3, .L43+32
 548 00d8 1A70     		strb	r2, [r3]
 549              	.L40:
 299:main.c        ****                             // *rxBufferPos = '\0';
 300:main.c        ****                             while (systemState != IDLE);
 550              		.loc 1 300 0 discriminator 1
 551 00da 1D4B     		ldr	r3, .L43+16
ARM GAS  C:\Users\winstona\AppData\Local\Temp\ccpY8M8W.s 			page 16


 552 00dc 1B78     		ldrb	r3, [r3]	@ zero_extendqisi2
 553 00de 022B     		cmp	r3, #2
 554 00e0 FBD1     		bne	.L40
 555 00e2 9DE7     		b	.L30
 556              	.LVL52:
 557              	.L39:
 301:main.c        ****                         } else {
 302:main.c        ****                             // Will round down properly, since 0.5 is truncated.
 303:main.c        ****                             rxBit -= bitsToShift;
 558              		.loc 1 303 0
 559 00e4 A41A     		subs	r4, r4, r2
 560 00e6 1D4B     		ldr	r3, .L43+28
 561 00e8 1C70     		strb	r4, [r3]
 562 00ea 99E7     		b	.L30
 563              	.LVL53:
 564              	.L35:
 565              	.LBE4:
 566              	.LBB5:
 304:main.c        ****                         }
 305:main.c        ****                     } else { // Was last high.
 306:main.c        ****                         int timeClk = COLLISION_COUNTER - inputCaptureTime;
 567              		.loc 1 306 0
 568 00ec C0F13300 		rsb	r0, r0, #51
 569              	.LVL54:
 307:main.c        ****                         if (timeClk >= MIN_RX_HIGH_TIME_CLK) {
 570              		.loc 1 307 0
 571 00f0 2F28     		cmp	r0, #47
 572 00f2 95DD     		ble	.L30
 308:main.c        ****                             currRxChar |= (1 << rxBit);
 573              		.loc 1 308 0
 574 00f4 194B     		ldr	r3, .L43+28
 575 00f6 1A78     		ldrb	r2, [r3]	@ zero_extendqisi2
 576 00f8 0123     		movs	r3, #1
 577 00fa 9340     		lsls	r3, r3, r2
 578 00fc 1849     		ldr	r1, .L43+32
 579 00fe 0878     		ldrb	r0, [r1]	@ zero_extendqisi2
 580              	.LVL55:
 581 0100 0343     		orrs	r3, r3, r0
 582 0102 0B70     		strb	r3, [r1]
 309:main.c        ****                             USBUART_PutChar(rxBit+0x30);
 583              		.loc 1 309 0
 584 0104 02F13000 		add	r0, r2, #48
 585 0108 C0B2     		uxtb	r0, r0
 586 010a FFF7FEFF 		bl	USBUART_PutChar
 587              	.LVL56:
 588 010e 87E7     		b	.L30
 589              	.LVL57:
 590              	.L31:
 591              	.LBE5:
 592              	.LBE3:
 310:main.c        ****                             // *rxBufferPos |= (1 << rxBit);
 311:main.c        ****                         }
 312:main.c        ****                     }
 313:main.c        ****                 }
 314:main.c        ****             }
 315:main.c        ****         } else if (localState == IDLE) {
 593              		.loc 1 315 0
ARM GAS  C:\Users\winstona\AppData\Local\Temp\ccpY8M8W.s 			page 17


 594 0110 022B     		cmp	r3, #2
 595 0112 0DD1     		bne	.L41
 316:main.c        ****             // If idle, finish off current bit.
 317:main.c        ****             if (rxBit != NO_BIT) {
 596              		.loc 1 317 0
 597 0114 114B     		ldr	r3, .L43+28
 598              	.LVL58:
 599 0116 1B78     		ldrb	r3, [r3]	@ zero_extendqisi2
 600 0118 082B     		cmp	r3, #8
 601 011a 81D0     		beq	.L30
 318:main.c        ****                 USBUART_PutChar(currRxChar);
 602              		.loc 1 318 0
 603 011c 104C     		ldr	r4, .L43+32
 604 011e 2078     		ldrb	r0, [r4]	@ zero_extendqisi2
 605 0120 FFF7FEFF 		bl	USBUART_PutChar
 606              	.LVL59:
 319:main.c        ****                 currRxChar = '\0';
 607              		.loc 1 319 0
 608 0124 0023     		movs	r3, #0
 609 0126 2370     		strb	r3, [r4]
 320:main.c        ****                 // rxBufferPos++;
 321:main.c        ****                 // *rxBufferPos = '\0';
 322:main.c        ****                 rxBit = NO_BIT;
 610              		.loc 1 322 0
 611 0128 0822     		movs	r2, #8
 612 012a 0C4B     		ldr	r3, .L43+28
 613 012c 1A70     		strb	r2, [r3]
 614 012e 77E7     		b	.L30
 615              	.LVL60:
 616              	.L41:
 323:main.c        ****             }
 324:main.c        ****         } else {
 325:main.c        ****             // If collision, STOP trying to receive current bit.
 326:main.c        ****             rxBit = NO_BIT;
 617              		.loc 1 326 0
 618 0130 0822     		movs	r2, #8
 619 0132 0A4B     		ldr	r3, .L43+28
 620              	.LVL61:
 621 0134 1A70     		strb	r2, [r3]
 327:main.c        ****             currRxChar = '\0';
 622              		.loc 1 327 0
 623 0136 0022     		movs	r2, #0
 624 0138 094B     		ldr	r3, .L43+32
 625 013a 1A70     		strb	r2, [r3]
 626 013c 70E7     		b	.L30
 627              	.L44:
 628 013e 00BF     		.align	2
 629              	.L43:
 630 0140 00000000 		.word	RisingEdgeInterruptHandler
 631 0144 00000000 		.word	FallingEdgeInterruptHandler
 632 0148 00000000 		.word	ReceiveInterruptHandler
 633 014c 00000000 		.word	USBUART_device
 634 0150 00000000 		.word	systemState
 635 0154 67640040 		.word	1073767527
 636 0158 00000000 		.word	.LANCHOR0
 637 015c 00000000 		.word	.LANCHOR1
 638 0160 00000000 		.word	currRxChar
ARM GAS  C:\Users\winstona\AppData\Local\Temp\ccpY8M8W.s 			page 18


 639 0164 1F85EB51 		.word	1374389535
 640              	.LBE2:
 641              		.cfi_endproc
 642              	.LFE68:
 643              		.size	main, .-main
 644              		.comm	currRxChar,1,1
 645              		.global	rxBit
 646              		.global	idx
 647              		.comm	count,4,4
 648              		.global	symbolPosition
 649              		.comm	dataSize,4,4
 650              		.comm	data,16,4
 651              		.comm	buffer,500,4
 652              		.global	bufferPosition
 653              		.comm	currentDataCharacter,1,1
 654              		.global	logicLevel
 655              		.comm	systemState,1,1
 656              		.data
 657              		.set	.LANCHOR1,. + 0
 658              		.type	rxBit, %object
 659              		.size	rxBit, 1
 660              	rxBit:
 661 0000 08       		.byte	8
 662              		.bss
 663              		.align	2
 664              		.set	.LANCHOR0,. + 0
 665              		.type	logicLevel, %object
 666              		.size	logicLevel, 1
 667              	logicLevel:
 668 0000 00       		.space	1
 669 0001 000000   		.space	3
 670              		.type	bufferPosition, %object
 671              		.size	bufferPosition, 4
 672              	bufferPosition:
 673 0004 00000000 		.space	4
 674              		.type	symbolPosition, %object
 675              		.size	symbolPosition, 4
 676              	symbolPosition:
 677 0008 00000000 		.space	4
 678              		.type	idx, %object
 679              		.size	idx, 4
 680              	idx:
 681 000c 00000000 		.space	4
 682              		.text
 683              	.Letext0:
 684              		.file 2 "c:\\program files (x86)\\cypress\\psoc creator\\4.1\\psoc creator\\import\\gnu\\arm\\5.4.
 685              		.file 3 "c:\\program files (x86)\\cypress\\psoc creator\\4.1\\psoc creator\\import\\gnu\\arm\\5.4.
 686              		.file 4 "Generated_Source\\PSoC5/cytypes.h"
 687              		.file 5 "Generated_Source\\PSoC5/USBUART.h"
 688              		.file 6 "Generated_Source\\PSoC5/core_cm3.h"
 689              		.file 7 "Generated_Source\\PSoC5/COLLISION.h"
 690              		.file 8 "Generated_Source\\PSoC5/IDLE.h"
 691              		.file 9 "Generated_Source\\PSoC5/BUSY.h"
 692              		.file 10 "Generated_Source\\PSoC5/RisingEdgeISR.h"
 693              		.file 11 "Generated_Source\\PSoC5/TimerRX.h"
 694              		.file 12 "Generated_Source\\PSoC5/FallingEdgeISR.h"
 695              		.file 13 "Generated_Source\\PSoC5/TRANSMIT.h"
ARM GAS  C:\Users\winstona\AppData\Local\Temp\ccpY8M8W.s 			page 19


 696              		.file 14 "Generated_Source\\PSoC5/CyLib.h"
 697              		.file 15 "Generated_Source\\PSoC5/USBUART_cdc.h"
 698              		.file 16 "Generated_Source\\PSoC5/ReceiveISR.h"
 699              		.section	.debug_info,"",%progbits
 700              	.Ldebug_info0:
 701 0000 68060000 		.4byte	0x668
 702 0004 0400     		.2byte	0x4
 703 0006 00000000 		.4byte	.Ldebug_abbrev0
 704 000a 04       		.byte	0x4
 705 000b 01       		.uleb128 0x1
 706 000c D8030000 		.4byte	.LASF69
 707 0010 0C       		.byte	0xc
 708 0011 28030000 		.4byte	.LASF70
 709 0015 C4010000 		.4byte	.LASF71
 710 0019 00000000 		.4byte	.Ldebug_ranges0+0
 711 001d 00000000 		.4byte	0
 712 0021 00000000 		.4byte	.Ldebug_line0
 713 0025 02       		.uleb128 0x2
 714 0026 08       		.byte	0x8
 715 0027 07       		.byte	0x7
 716 0028 AD010000 		.4byte	.LASF0
 717 002c 02       		.uleb128 0x2
 718 002d 04       		.byte	0x4
 719 002e 07       		.byte	0x7
 720 002f 21020000 		.4byte	.LASF1
 721 0033 03       		.uleb128 0x3
 722 0034 04       		.byte	0x4
 723 0035 05       		.byte	0x5
 724 0036 696E7400 		.ascii	"int\000"
 725 003a 02       		.uleb128 0x2
 726 003b 01       		.byte	0x1
 727 003c 06       		.byte	0x6
 728 003d A1010000 		.4byte	.LASF2
 729 0041 04       		.uleb128 0x4
 730 0042 26010000 		.4byte	.LASF5
 731 0046 02       		.byte	0x2
 732 0047 1D       		.byte	0x1d
 733 0048 4C000000 		.4byte	0x4c
 734 004c 02       		.uleb128 0x2
 735 004d 01       		.byte	0x1
 736 004e 08       		.byte	0x8
 737 004f 77010000 		.4byte	.LASF3
 738 0053 02       		.uleb128 0x2
 739 0054 02       		.byte	0x2
 740 0055 05       		.byte	0x5
 741 0056 3D000000 		.4byte	.LASF4
 742 005a 04       		.uleb128 0x4
 743 005b 67000000 		.4byte	.LASF6
 744 005f 02       		.byte	0x2
 745 0060 2B       		.byte	0x2b
 746 0061 65000000 		.4byte	0x65
 747 0065 02       		.uleb128 0x2
 748 0066 02       		.byte	0x2
 749 0067 07       		.byte	0x7
 750 0068 7C020000 		.4byte	.LASF7
 751 006c 04       		.uleb128 0x4
 752 006d 86030000 		.4byte	.LASF8
ARM GAS  C:\Users\winstona\AppData\Local\Temp\ccpY8M8W.s 			page 20


 753 0071 02       		.byte	0x2
 754 0072 3F       		.byte	0x3f
 755 0073 77000000 		.4byte	0x77
 756 0077 02       		.uleb128 0x2
 757 0078 04       		.byte	0x4
 758 0079 05       		.byte	0x5
 759 007a FA000000 		.4byte	.LASF9
 760 007e 02       		.uleb128 0x2
 761 007f 04       		.byte	0x4
 762 0080 07       		.byte	0x7
 763 0081 34030000 		.4byte	.LASF10
 764 0085 02       		.uleb128 0x2
 765 0086 08       		.byte	0x8
 766 0087 05       		.byte	0x5
 767 0088 C2000000 		.4byte	.LASF11
 768 008c 04       		.uleb128 0x4
 769 008d 94000000 		.4byte	.LASF12
 770 0091 03       		.byte	0x3
 771 0092 18       		.byte	0x18
 772 0093 41000000 		.4byte	0x41
 773 0097 04       		.uleb128 0x4
 774 0098 2E020000 		.4byte	.LASF13
 775 009c 03       		.byte	0x3
 776 009d 24       		.byte	0x24
 777 009e 5A000000 		.4byte	0x5a
 778 00a2 04       		.uleb128 0x4
 779 00a3 A2020000 		.4byte	.LASF14
 780 00a7 03       		.byte	0x3
 781 00a8 2C       		.byte	0x2c
 782 00a9 6C000000 		.4byte	0x6c
 783 00ad 05       		.uleb128 0x5
 784 00ae 9C000000 		.4byte	.LASF15
 785 00b2 04       		.byte	0x4
 786 00b3 9201     		.2byte	0x192
 787 00b5 4C000000 		.4byte	0x4c
 788 00b9 02       		.uleb128 0x2
 789 00ba 04       		.byte	0x4
 790 00bb 04       		.byte	0x4
 791 00bc BC000000 		.4byte	.LASF16
 792 00c0 02       		.uleb128 0x2
 793 00c1 08       		.byte	0x8
 794 00c2 04       		.byte	0x4
 795 00c3 46030000 		.4byte	.LASF17
 796 00c7 02       		.uleb128 0x2
 797 00c8 01       		.byte	0x1
 798 00c9 08       		.byte	0x8
 799 00ca 97020000 		.4byte	.LASF18
 800 00ce 05       		.uleb128 0x5
 801 00cf 2F030000 		.4byte	.LASF19
 802 00d3 04       		.byte	0x4
 803 00d4 3C02     		.2byte	0x23c
 804 00d6 DA000000 		.4byte	0xda
 805 00da 06       		.uleb128 0x6
 806 00db AD000000 		.4byte	0xad
 807 00df 02       		.uleb128 0x2
 808 00e0 08       		.byte	0x8
 809 00e1 04       		.byte	0x4
ARM GAS  C:\Users\winstona\AppData\Local\Temp\ccpY8M8W.s 			page 21


 810 00e2 5B010000 		.4byte	.LASF20
 811 00e6 02       		.uleb128 0x2
 812 00e7 04       		.byte	0x4
 813 00e8 07       		.byte	0x7
 814 00e9 47000000 		.4byte	.LASF21
 815 00ed 07       		.uleb128 0x7
 816 00ee 01       		.byte	0x1
 817 00ef 4C000000 		.4byte	0x4c
 818 00f3 01       		.byte	0x1
 819 00f4 30       		.byte	0x30
 820 00f5 0C010000 		.4byte	0x10c
 821 00f9 08       		.uleb128 0x8
 822 00fa 56010000 		.4byte	.LASF22
 823 00fe 00       		.byte	0
 824 00ff 08       		.uleb128 0x8
 825 0100 4C010000 		.4byte	.LASF23
 826 0104 01       		.byte	0x1
 827 0105 08       		.uleb128 0x8
 828 0106 A2000000 		.4byte	.LASF24
 829 010a 02       		.byte	0x2
 830 010b 00       		.byte	0
 831 010c 04       		.uleb128 0x4
 832 010d D0000000 		.4byte	.LASF25
 833 0111 01       		.byte	0x1
 834 0112 30       		.byte	0x30
 835 0113 ED000000 		.4byte	0xed
 836 0117 09       		.uleb128 0x9
 837 0118 25000000 		.4byte	.LASF26
 838 011c 01       		.byte	0x1
 839 011d 61       		.byte	0x61
 840 011e 00000000 		.4byte	.LFB64
 841 0122 4C000000 		.4byte	.LFE64-.LFB64
 842 0126 01       		.uleb128 0x1
 843 0127 9C       		.byte	0x9c
 844 0128 9B010000 		.4byte	0x19b
 845 012c 0A       		.uleb128 0xa
 846 012d 16000000 		.4byte	.LVL0
 847 0131 A4050000 		.4byte	0x5a4
 848 0135 3F010000 		.4byte	0x13f
 849 0139 0B       		.uleb128 0xb
 850 013a 01       		.uleb128 0x1
 851 013b 50       		.byte	0x50
 852 013c 01       		.uleb128 0x1
 853 013d 31       		.byte	0x31
 854 013e 00       		.byte	0
 855 013f 0A       		.uleb128 0xa
 856 0140 1C000000 		.4byte	.LVL1
 857 0144 AF050000 		.4byte	0x5af
 858 0148 52010000 		.4byte	0x152
 859 014c 0B       		.uleb128 0xb
 860 014d 01       		.uleb128 0x1
 861 014e 50       		.byte	0x50
 862 014f 01       		.uleb128 0x1
 863 0150 30       		.byte	0x30
 864 0151 00       		.byte	0
 865 0152 0A       		.uleb128 0xa
 866 0153 22000000 		.4byte	.LVL2
ARM GAS  C:\Users\winstona\AppData\Local\Temp\ccpY8M8W.s 			page 22


 867 0157 BA050000 		.4byte	0x5ba
 868 015b 65010000 		.4byte	0x165
 869 015f 0B       		.uleb128 0xb
 870 0160 01       		.uleb128 0x1
 871 0161 50       		.byte	0x50
 872 0162 01       		.uleb128 0x1
 873 0163 30       		.byte	0x30
 874 0164 00       		.byte	0
 875 0165 0A       		.uleb128 0xa
 876 0166 30000000 		.4byte	.LVL3
 877 016a A4050000 		.4byte	0x5a4
 878 016e 78010000 		.4byte	0x178
 879 0172 0B       		.uleb128 0xb
 880 0173 01       		.uleb128 0x1
 881 0174 50       		.byte	0x50
 882 0175 01       		.uleb128 0x1
 883 0176 30       		.byte	0x30
 884 0177 00       		.byte	0
 885 0178 0A       		.uleb128 0xa
 886 0179 36000000 		.4byte	.LVL4
 887 017d AF050000 		.4byte	0x5af
 888 0181 8B010000 		.4byte	0x18b
 889 0185 0B       		.uleb128 0xb
 890 0186 01       		.uleb128 0x1
 891 0187 50       		.byte	0x50
 892 0188 01       		.uleb128 0x1
 893 0189 31       		.byte	0x31
 894 018a 00       		.byte	0
 895 018b 0C       		.uleb128 0xc
 896 018c 3C000000 		.4byte	.LVL5
 897 0190 BA050000 		.4byte	0x5ba
 898 0194 0B       		.uleb128 0xb
 899 0195 01       		.uleb128 0x1
 900 0196 50       		.byte	0x50
 901 0197 01       		.uleb128 0x1
 902 0198 30       		.byte	0x30
 903 0199 00       		.byte	0
 904 019a 00       		.byte	0
 905 019b 09       		.uleb128 0x9
 906 019c 72040000 		.4byte	.LASF27
 907 01a0 01       		.byte	0x1
 908 01a1 7E       		.byte	0x7e
 909 01a2 00000000 		.4byte	.LFB65
 910 01a6 48000000 		.4byte	.LFE65-.LFB65
 911 01aa 01       		.uleb128 0x1
 912 01ab 9C       		.byte	0x9c
 913 01ac 2B020000 		.4byte	0x22b
 914 01b0 0D       		.uleb128 0xd
 915 01b1 0C000000 		.4byte	.LVL6
 916 01b5 C5050000 		.4byte	0x5c5
 917 01b9 0D       		.uleb128 0xd
 918 01ba 10000000 		.4byte	.LVL7
 919 01be D0050000 		.4byte	0x5d0
 920 01c2 0A       		.uleb128 0xa
 921 01c3 16000000 		.4byte	.LVL8
 922 01c7 DB050000 		.4byte	0x5db
 923 01cb D6010000 		.4byte	0x1d6
ARM GAS  C:\Users\winstona\AppData\Local\Temp\ccpY8M8W.s 			page 23


 924 01cf 0B       		.uleb128 0xb
 925 01d0 01       		.uleb128 0x1
 926 01d1 50       		.byte	0x50
 927 01d2 02       		.uleb128 0x2
 928 01d3 08       		.byte	0x8
 929 01d4 34       		.byte	0x34
 930 01d5 00       		.byte	0
 931 01d6 0A       		.uleb128 0xa
 932 01d7 1C000000 		.4byte	.LVL9
 933 01db E6050000 		.4byte	0x5e6
 934 01df EA010000 		.4byte	0x1ea
 935 01e3 0B       		.uleb128 0xb
 936 01e4 01       		.uleb128 0x1
 937 01e5 50       		.byte	0x50
 938 01e6 02       		.uleb128 0x2
 939 01e7 08       		.byte	0x8
 940 01e8 33       		.byte	0x33
 941 01e9 00       		.byte	0
 942 01ea 0D       		.uleb128 0xd
 943 01eb 20000000 		.4byte	.LVL10
 944 01ef F1050000 		.4byte	0x5f1
 945 01f3 0A       		.uleb128 0xa
 946 01f4 30000000 		.4byte	.LVL11
 947 01f8 BA050000 		.4byte	0x5ba
 948 01fc 06020000 		.4byte	0x206
 949 0200 0B       		.uleb128 0xb
 950 0201 01       		.uleb128 0x1
 951 0202 50       		.byte	0x50
 952 0203 01       		.uleb128 0x1
 953 0204 31       		.byte	0x31
 954 0205 00       		.byte	0
 955 0206 0A       		.uleb128 0xa
 956 0207 36000000 		.4byte	.LVL12
 957 020b A4050000 		.4byte	0x5a4
 958 020f 1A020000 		.4byte	0x21a
 959 0213 0B       		.uleb128 0xb
 960 0214 01       		.uleb128 0x1
 961 0215 50       		.byte	0x50
 962 0216 02       		.uleb128 0x2
 963 0217 74       		.byte	0x74
 964 0218 00       		.sleb128 0
 965 0219 00       		.byte	0
 966 021a 0C       		.uleb128 0xc
 967 021b 3C000000 		.4byte	.LVL13
 968 021f AF050000 		.4byte	0x5af
 969 0223 0B       		.uleb128 0xb
 970 0224 01       		.uleb128 0x1
 971 0225 50       		.byte	0x50
 972 0226 02       		.uleb128 0x2
 973 0227 74       		.byte	0x74
 974 0228 00       		.sleb128 0
 975 0229 00       		.byte	0
 976 022a 00       		.byte	0
 977 022b 09       		.uleb128 0x9
 978 022c 30010000 		.4byte	.LASF28
 979 0230 01       		.byte	0x1
 980 0231 9B       		.byte	0x9b
ARM GAS  C:\Users\winstona\AppData\Local\Temp\ccpY8M8W.s 			page 24


 981 0232 00000000 		.4byte	.LFB66
 982 0236 4C000000 		.4byte	.LFE66-.LFB66
 983 023a 01       		.uleb128 0x1
 984 023b 9C       		.byte	0x9c
 985 023c BD020000 		.4byte	0x2bd
 986 0240 0D       		.uleb128 0xd
 987 0241 0C000000 		.4byte	.LVL14
 988 0245 FC050000 		.4byte	0x5fc
 989 0249 0D       		.uleb128 0xd
 990 024a 10000000 		.4byte	.LVL15
 991 024e D0050000 		.4byte	0x5d0
 992 0252 0A       		.uleb128 0xa
 993 0253 18000000 		.4byte	.LVL16
 994 0257 DB050000 		.4byte	0x5db
 995 025b 67020000 		.4byte	0x267
 996 025f 0B       		.uleb128 0xb
 997 0260 01       		.uleb128 0x1
 998 0261 50       		.byte	0x50
 999 0262 03       		.uleb128 0x3
 1000 0263 0A       		.byte	0xa
 1001 0264 3E03     		.2byte	0x33e
 1002 0266 00       		.byte	0
 1003 0267 0A       		.uleb128 0xa
 1004 0268 20000000 		.4byte	.LVL17
 1005 026c E6050000 		.4byte	0x5e6
 1006 0270 7C020000 		.4byte	0x27c
 1007 0274 0B       		.uleb128 0xb
 1008 0275 01       		.uleb128 0x1
 1009 0276 50       		.byte	0x50
 1010 0277 03       		.uleb128 0x3
 1011 0278 0A       		.byte	0xa
 1012 0279 3D03     		.2byte	0x33d
 1013 027b 00       		.byte	0
 1014 027c 0D       		.uleb128 0xd
 1015 027d 24000000 		.4byte	.LVL18
 1016 0281 F1050000 		.4byte	0x5f1
 1017 0285 0A       		.uleb128 0xa
 1018 0286 34000000 		.4byte	.LVL19
 1019 028a BA050000 		.4byte	0x5ba
 1020 028e 98020000 		.4byte	0x298
 1021 0292 0B       		.uleb128 0xb
 1022 0293 01       		.uleb128 0x1
 1023 0294 50       		.byte	0x50
 1024 0295 01       		.uleb128 0x1
 1025 0296 31       		.byte	0x31
 1026 0297 00       		.byte	0
 1027 0298 0A       		.uleb128 0xa
 1028 0299 3A000000 		.4byte	.LVL20
 1029 029d A4050000 		.4byte	0x5a4
 1030 02a1 AC020000 		.4byte	0x2ac
 1031 02a5 0B       		.uleb128 0xb
 1032 02a6 01       		.uleb128 0x1
 1033 02a7 50       		.byte	0x50
 1034 02a8 02       		.uleb128 0x2
 1035 02a9 74       		.byte	0x74
 1036 02aa 00       		.sleb128 0
 1037 02ab 00       		.byte	0
ARM GAS  C:\Users\winstona\AppData\Local\Temp\ccpY8M8W.s 			page 25


 1038 02ac 0C       		.uleb128 0xc
 1039 02ad 40000000 		.4byte	.LVL21
 1040 02b1 AF050000 		.4byte	0x5af
 1041 02b5 0B       		.uleb128 0xb
 1042 02b6 01       		.uleb128 0x1
 1043 02b7 50       		.byte	0x50
 1044 02b8 02       		.uleb128 0x2
 1045 02b9 74       		.byte	0x74
 1046 02ba 00       		.sleb128 0
 1047 02bb 00       		.byte	0
 1048 02bc 00       		.byte	0
 1049 02bd 09       		.uleb128 0x9
 1050 02be E1000000 		.4byte	.LASF29
 1051 02c2 01       		.byte	0x1
 1052 02c3 B6       		.byte	0xb6
 1053 02c4 00000000 		.4byte	.LFB67
 1054 02c8 C4000000 		.4byte	.LFE67-.LFB67
 1055 02cc 01       		.uleb128 0x1
 1056 02cd 9C       		.byte	0x9c
 1057 02ce 43030000 		.4byte	0x343
 1058 02d2 0A       		.uleb128 0xa
 1059 02d3 26000000 		.4byte	.LVL22
 1060 02d7 07060000 		.4byte	0x607
 1061 02db E5020000 		.4byte	0x2e5
 1062 02df 0B       		.uleb128 0xb
 1063 02e0 01       		.uleb128 0x1
 1064 02e1 50       		.byte	0x50
 1065 02e2 01       		.uleb128 0x1
 1066 02e3 31       		.byte	0x31
 1067 02e4 00       		.byte	0
 1068 02e5 0A       		.uleb128 0xa
 1069 02e6 3E000000 		.4byte	.LVL23
 1070 02ea 07060000 		.4byte	0x607
 1071 02ee F8020000 		.4byte	0x2f8
 1072 02f2 0B       		.uleb128 0xb
 1073 02f3 01       		.uleb128 0x1
 1074 02f4 50       		.byte	0x50
 1075 02f5 01       		.uleb128 0x1
 1076 02f6 30       		.byte	0x30
 1077 02f7 00       		.byte	0
 1078 02f8 0A       		.uleb128 0xa
 1079 02f9 60000000 		.4byte	.LVL24
 1080 02fd 07060000 		.4byte	0x607
 1081 0301 0B030000 		.4byte	0x30b
 1082 0305 0B       		.uleb128 0xb
 1083 0306 01       		.uleb128 0x1
 1084 0307 50       		.byte	0x50
 1085 0308 01       		.uleb128 0x1
 1086 0309 31       		.byte	0x31
 1087 030a 00       		.byte	0
 1088 030b 0A       		.uleb128 0xa
 1089 030c 72000000 		.4byte	.LVL25
 1090 0310 07060000 		.4byte	0x607
 1091 0314 1E030000 		.4byte	0x31e
 1092 0318 0B       		.uleb128 0xb
 1093 0319 01       		.uleb128 0x1
 1094 031a 50       		.byte	0x50
ARM GAS  C:\Users\winstona\AppData\Local\Temp\ccpY8M8W.s 			page 26


 1095 031b 01       		.uleb128 0x1
 1096 031c 30       		.byte	0x30
 1097 031d 00       		.byte	0
 1098 031e 0A       		.uleb128 0xa
 1099 031f 8C000000 		.4byte	.LVL26
 1100 0323 12060000 		.4byte	0x612
 1101 0327 33030000 		.4byte	0x333
 1102 032b 0B       		.uleb128 0xb
 1103 032c 01       		.uleb128 0x1
 1104 032d 50       		.byte	0x50
 1105 032e 03       		.uleb128 0x3
 1106 032f 0A       		.byte	0xa
 1107 0330 C201     		.2byte	0x1c2
 1108 0332 00       		.byte	0
 1109 0333 0C       		.uleb128 0xc
 1110 0334 AA000000 		.4byte	.LVL27
 1111 0338 07060000 		.4byte	0x607
 1112 033c 0B       		.uleb128 0xb
 1113 033d 01       		.uleb128 0x1
 1114 033e 50       		.byte	0x50
 1115 033f 01       		.uleb128 0x1
 1116 0340 30       		.byte	0x30
 1117 0341 00       		.byte	0
 1118 0342 00       		.byte	0
 1119 0343 0E       		.uleb128 0xe
 1120 0344 62000000 		.4byte	.LASF72
 1121 0348 01       		.byte	0x1
 1122 0349 E3       		.byte	0xe3
 1123 034a 33000000 		.4byte	0x33
 1124 034e 00000000 		.4byte	.LFB68
 1125 0352 68010000 		.4byte	.LFE68-.LFB68
 1126 0356 01       		.uleb128 0x1
 1127 0357 9C       		.byte	0x9c
 1128 0358 93040000 		.4byte	0x493
 1129 035c 0F       		.uleb128 0xf
 1130 035d 20000000 		.4byte	.LBB2
 1131 0361 48010000 		.4byte	.LBE2-.LBB2
 1132 0365 3E040000 		.4byte	0x43e
 1133 0369 10       		.uleb128 0x10
 1134 036a 7B030000 		.4byte	.LASF30
 1135 036e 01       		.byte	0x1
 1136 036f F4       		.byte	0xf4
 1137 0370 0C010000 		.4byte	0x10c
 1138 0374 00000000 		.4byte	.LLST0
 1139 0378 0F       		.uleb128 0xf
 1140 0379 32000000 		.4byte	.LBB3
 1141 037d DE000000 		.4byte	.LBE3-.LBB3
 1142 0381 34040000 		.4byte	0x434
 1143 0385 10       		.uleb128 0x10
 1144 0386 9F030000 		.4byte	.LASF31
 1145 038a 01       		.byte	0x1
 1146 038b FE       		.byte	0xfe
 1147 038c 93040000 		.4byte	0x493
 1148 0390 56000000 		.4byte	.LLST1
 1149 0394 10       		.uleb128 0x10
 1150 0395 58020000 		.4byte	.LASF32
 1151 0399 01       		.byte	0x1
ARM GAS  C:\Users\winstona\AppData\Local\Temp\ccpY8M8W.s 			page 27


 1152 039a FF       		.byte	0xff
 1153 039b 97000000 		.4byte	0x97
 1154 039f 74000000 		.4byte	.LLST2
 1155 03a3 0F       		.uleb128 0xf
 1156 03a4 62000000 		.4byte	.LBB4
 1157 03a8 8A000000 		.4byte	.LBE4-.LBB4
 1158 03ac FA030000 		.4byte	0x3fa
 1159 03b0 11       		.uleb128 0x11
 1160 03b1 8F020000 		.4byte	.LASF33
 1161 03b5 01       		.byte	0x1
 1162 03b6 1101     		.2byte	0x111
 1163 03b8 33000000 		.4byte	0x33
 1164 03bc 9D000000 		.4byte	.LLST3
 1165 03c0 11       		.uleb128 0x11
 1166 03c1 91010000 		.4byte	.LASF34
 1167 03c5 01       		.byte	0x1
 1168 03c6 1201     		.2byte	0x112
 1169 03c8 33000000 		.4byte	0x33
 1170 03cc CC000000 		.4byte	.LLST4
 1171 03d0 11       		.uleb128 0x11
 1172 03d1 50000000 		.4byte	.LASF35
 1173 03d5 01       		.byte	0x1
 1174 03d6 1401     		.2byte	0x114
 1175 03d8 33000000 		.4byte	0x33
 1176 03dc 45010000 		.4byte	.LLST5
 1177 03e0 11       		.uleb128 0x11
 1178 03e1 66040000 		.4byte	.LASF36
 1179 03e5 01       		.byte	0x1
 1180 03e6 1601     		.2byte	0x116
 1181 03e8 33000000 		.4byte	0x33
 1182 03ec EF010000 		.4byte	.LLST6
 1183 03f0 0D       		.uleb128 0xd
 1184 03f1 AA000000 		.4byte	.LVL46
 1185 03f5 1D060000 		.4byte	0x61d
 1186 03f9 00       		.byte	0
 1187 03fa 0F       		.uleb128 0xf
 1188 03fb EC000000 		.4byte	.LBB5
 1189 03ff 24000000 		.4byte	.LBE5-.LBB5
 1190 0403 21040000 		.4byte	0x421
 1191 0407 11       		.uleb128 0x11
 1192 0408 8F020000 		.4byte	.LASF33
 1193 040c 01       		.byte	0x1
 1194 040d 3201     		.2byte	0x132
 1195 040f 33000000 		.4byte	0x33
 1196 0413 38030000 		.4byte	.LLST7
 1197 0417 0D       		.uleb128 0xd
 1198 0418 0E010000 		.4byte	.LVL56
 1199 041c 1D060000 		.4byte	0x61d
 1200 0420 00       		.byte	0
 1201 0421 0D       		.uleb128 0xd
 1202 0422 3A000000 		.4byte	.LVL35
 1203 0426 28060000 		.4byte	0x628
 1204 042a 0D       		.uleb128 0xd
 1205 042b 5C000000 		.4byte	.LVL36
 1206 042f 33060000 		.4byte	0x633
 1207 0433 00       		.byte	0
 1208 0434 0D       		.uleb128 0xd
ARM GAS  C:\Users\winstona\AppData\Local\Temp\ccpY8M8W.s 			page 28


 1209 0435 24010000 		.4byte	.LVL59
 1210 0439 1D060000 		.4byte	0x61d
 1211 043d 00       		.byte	0
 1212 043e 0A       		.uleb128 0xa
 1213 043f 0A000000 		.4byte	.LVL28
 1214 0443 3E060000 		.4byte	0x63e
 1215 0447 55040000 		.4byte	0x455
 1216 044b 0B       		.uleb128 0xb
 1217 044c 01       		.uleb128 0x1
 1218 044d 50       		.byte	0x50
 1219 044e 05       		.uleb128 0x5
 1220 044f 03       		.byte	0x3
 1221 0450 00000000 		.4byte	RisingEdgeInterruptHandler
 1222 0454 00       		.byte	0
 1223 0455 0A       		.uleb128 0xa
 1224 0456 10000000 		.4byte	.LVL29
 1225 045a 49060000 		.4byte	0x649
 1226 045e 6C040000 		.4byte	0x46c
 1227 0462 0B       		.uleb128 0xb
 1228 0463 01       		.uleb128 0x1
 1229 0464 50       		.byte	0x50
 1230 0465 05       		.uleb128 0x5
 1231 0466 03       		.byte	0x3
 1232 0467 00000000 		.4byte	FallingEdgeInterruptHandler
 1233 046b 00       		.byte	0
 1234 046c 0A       		.uleb128 0xa
 1235 046d 16000000 		.4byte	.LVL30
 1236 0471 54060000 		.4byte	0x654
 1237 0475 83040000 		.4byte	0x483
 1238 0479 0B       		.uleb128 0xb
 1239 047a 01       		.uleb128 0x1
 1240 047b 50       		.byte	0x50
 1241 047c 05       		.uleb128 0x5
 1242 047d 03       		.byte	0x3
 1243 047e 00000000 		.4byte	ReceiveInterruptHandler
 1244 0482 00       		.byte	0
 1245 0483 0C       		.uleb128 0xc
 1246 0484 20000000 		.4byte	.LVL31
 1247 0488 5F060000 		.4byte	0x65f
 1248 048c 0B       		.uleb128 0xb
 1249 048d 01       		.uleb128 0x1
 1250 048e 51       		.byte	0x51
 1251 048f 01       		.uleb128 0x1
 1252 0490 31       		.byte	0x31
 1253 0491 00       		.byte	0
 1254 0492 00       		.byte	0
 1255 0493 02       		.uleb128 0x2
 1256 0494 01       		.byte	0x1
 1257 0495 02       		.byte	0x2
 1258 0496 9C020000 		.4byte	.LASF37
 1259 049a 12       		.uleb128 0x12
 1260 049b 03010000 		.4byte	.LASF38
 1261 049f 05       		.byte	0x5
 1262 04a0 D602     		.2byte	0x2d6
 1263 04a2 DA000000 		.4byte	0xda
 1264 04a6 12       		.uleb128 0x12
 1265 04a7 68030000 		.4byte	.LASF39
ARM GAS  C:\Users\winstona\AppData\Local\Temp\ccpY8M8W.s 			page 29


 1266 04ab 06       		.byte	0x6
 1267 04ac 1207     		.2byte	0x712
 1268 04ae B2040000 		.4byte	0x4b2
 1269 04b2 06       		.uleb128 0x6
 1270 04b3 A2000000 		.4byte	0xa2
 1271 04b7 13       		.uleb128 0x13
 1272 04b8 85010000 		.4byte	.LASF40
 1273 04bc 01       		.byte	0x1
 1274 04bd 31       		.byte	0x31
 1275 04be 0C010000 		.4byte	0x10c
 1276 04c2 05       		.uleb128 0x5
 1277 04c3 03       		.byte	0x3
 1278 04c4 00000000 		.4byte	systemState
 1279 04c8 13       		.uleb128 0x13
 1280 04c9 D6000000 		.4byte	.LASF41
 1281 04cd 01       		.byte	0x1
 1282 04ce 33       		.byte	0x33
 1283 04cf 93040000 		.4byte	0x493
 1284 04d3 05       		.uleb128 0x5
 1285 04d4 03       		.byte	0x3
 1286 04d5 00000000 		.4byte	logicLevel
 1287 04d9 13       		.uleb128 0x13
 1288 04da A7000000 		.4byte	.LASF42
 1289 04de 01       		.byte	0x1
 1290 04df 34       		.byte	0x34
 1291 04e0 C7000000 		.4byte	0xc7
 1292 04e4 05       		.uleb128 0x5
 1293 04e5 03       		.byte	0x3
 1294 04e6 00000000 		.4byte	currentDataCharacter
 1295 04ea 13       		.uleb128 0x13
 1296 04eb 00000000 		.4byte	.LASF43
 1297 04ef 01       		.byte	0x1
 1298 04f0 35       		.byte	0x35
 1299 04f1 33000000 		.4byte	0x33
 1300 04f5 05       		.uleb128 0x5
 1301 04f6 03       		.byte	0x3
 1302 04f7 00000000 		.4byte	bufferPosition
 1303 04fb 14       		.uleb128 0x14
 1304 04fc 4C000000 		.4byte	0x4c
 1305 0500 0C050000 		.4byte	0x50c
 1306 0504 15       		.uleb128 0x15
 1307 0505 E6000000 		.4byte	0xe6
 1308 0509 F301     		.2byte	0x1f3
 1309 050b 00       		.byte	0
 1310 050c 13       		.uleb128 0x13
 1311 050d F5020000 		.4byte	.LASF44
 1312 0511 01       		.byte	0x1
 1313 0512 36       		.byte	0x36
 1314 0513 FB040000 		.4byte	0x4fb
 1315 0517 05       		.uleb128 0x5
 1316 0518 03       		.byte	0x3
 1317 0519 00000000 		.4byte	buffer
 1318 051d 14       		.uleb128 0x14
 1319 051e 4C000000 		.4byte	0x4c
 1320 0522 2D050000 		.4byte	0x52d
 1321 0526 16       		.uleb128 0x16
 1322 0527 E6000000 		.4byte	0xe6
ARM GAS  C:\Users\winstona\AppData\Local\Temp\ccpY8M8W.s 			page 30


 1323 052b 0F       		.byte	0xf
 1324 052c 00       		.byte	0
 1325 052d 13       		.uleb128 0x13
 1326 052e D9020000 		.4byte	.LASF45
 1327 0532 01       		.byte	0x1
 1328 0533 39       		.byte	0x39
 1329 0534 1D050000 		.4byte	0x51d
 1330 0538 05       		.uleb128 0x5
 1331 0539 03       		.byte	0x3
 1332 053a 00000000 		.4byte	data
 1333 053e 13       		.uleb128 0x13
 1334 053f 80000000 		.4byte	.LASF46
 1335 0543 01       		.byte	0x1
 1336 0544 3B       		.byte	0x3b
 1337 0545 33000000 		.4byte	0x33
 1338 0549 05       		.uleb128 0x5
 1339 054a 03       		.byte	0x3
 1340 054b 00000000 		.4byte	dataSize
 1341 054f 13       		.uleb128 0x13
 1342 0550 37020000 		.4byte	.LASF47
 1343 0554 01       		.byte	0x1
 1344 0555 3E       		.byte	0x3e
 1345 0556 33000000 		.4byte	0x33
 1346 055a 05       		.uleb128 0x5
 1347 055b 03       		.byte	0x3
 1348 055c 00000000 		.4byte	symbolPosition
 1349 0560 13       		.uleb128 0x13
 1350 0561 75030000 		.4byte	.LASF48
 1351 0565 01       		.byte	0x1
 1352 0566 40       		.byte	0x40
 1353 0567 33000000 		.4byte	0x33
 1354 056b 05       		.uleb128 0x5
 1355 056c 03       		.byte	0x3
 1356 056d 00000000 		.4byte	count
 1357 0571 17       		.uleb128 0x17
 1358 0572 69647800 		.ascii	"idx\000"
 1359 0576 01       		.byte	0x1
 1360 0577 43       		.byte	0x43
 1361 0578 33000000 		.4byte	0x33
 1362 057c 05       		.uleb128 0x5
 1363 057d 03       		.byte	0x3
 1364 057e 00000000 		.4byte	idx
 1365 0582 13       		.uleb128 0x13
 1366 0583 67010000 		.4byte	.LASF49
 1367 0587 01       		.byte	0x1
 1368 0588 49       		.byte	0x49
 1369 0589 8C000000 		.4byte	0x8c
 1370 058d 05       		.uleb128 0x5
 1371 058e 03       		.byte	0x3
 1372 058f 00000000 		.4byte	rxBit
 1373 0593 13       		.uleb128 0x13
 1374 0594 CD030000 		.4byte	.LASF50
 1375 0598 01       		.byte	0x1
 1376 0599 4E       		.byte	0x4e
 1377 059a C7000000 		.4byte	0xc7
 1378 059e 05       		.uleb128 0x5
 1379 059f 03       		.byte	0x3
ARM GAS  C:\Users\winstona\AppData\Local\Temp\ccpY8M8W.s 			page 31


 1380 05a0 00000000 		.4byte	currRxChar
 1381 05a4 18       		.uleb128 0x18
 1382 05a5 18030000 		.4byte	.LASF51
 1383 05a9 18030000 		.4byte	.LASF51
 1384 05ad 07       		.byte	0x7
 1385 05ae 26       		.byte	0x26
 1386 05af 18       		.uleb128 0x18
 1387 05b0 AA020000 		.4byte	.LASF52
 1388 05b4 AA020000 		.4byte	.LASF52
 1389 05b8 08       		.byte	0x8
 1390 05b9 26       		.byte	0x26
 1391 05ba 18       		.uleb128 0x18
 1392 05bb 89000000 		.4byte	.LASF53
 1393 05bf 89000000 		.4byte	.LASF53
 1394 05c3 09       		.byte	0x9
 1395 05c4 26       		.byte	0x26
 1396 05c5 18       		.uleb128 0x18
 1397 05c6 4D030000 		.4byte	.LASF54
 1398 05ca 4D030000 		.4byte	.LASF54
 1399 05ce 0A       		.byte	0xa
 1400 05cf 28       		.byte	0x28
 1401 05d0 18       		.uleb128 0x18
 1402 05d1 8D040000 		.4byte	.LASF55
 1403 05d5 8D040000 		.4byte	.LASF55
 1404 05d9 0B       		.byte	0xb
 1405 05da 5B       		.byte	0x5b
 1406 05db 18       		.uleb128 0x18
 1407 05dc B5020000 		.4byte	.LASF56
 1408 05e0 B5020000 		.4byte	.LASF56
 1409 05e4 0B       		.byte	0xb
 1410 05e5 68       		.byte	0x68
 1411 05e6 18       		.uleb128 0x18
 1412 05e7 B8030000 		.4byte	.LASF57
 1413 05eb B8030000 		.4byte	.LASF57
 1414 05ef 0B       		.byte	0xb
 1415 05f0 6A       		.byte	0x6a
 1416 05f1 18       		.uleb128 0x18
 1417 05f2 AA030000 		.4byte	.LASF58
 1418 05f6 AA030000 		.4byte	.LASF58
 1419 05fa 0B       		.byte	0xb
 1420 05fb 5A       		.byte	0x5a
 1421 05fc 18       		.uleb128 0x18
 1422 05fd FC020000 		.4byte	.LASF59
 1423 0601 FC020000 		.4byte	.LASF59
 1424 0605 0C       		.byte	0xc
 1425 0606 28       		.byte	0x28
 1426 0607 18       		.uleb128 0x18
 1427 0608 90030000 		.4byte	.LASF60
 1428 060c 90030000 		.4byte	.LASF60
 1429 0610 0D       		.byte	0xd
 1430 0611 26       		.byte	0x26
 1431 0612 18       		.uleb128 0x18
 1432 0613 6D010000 		.4byte	.LASF61
 1433 0617 6D010000 		.4byte	.LASF61
 1434 061b 0E       		.byte	0xe
 1435 061c 77       		.byte	0x77
 1436 061d 18       		.uleb128 0x18
ARM GAS  C:\Users\winstona\AppData\Local\Temp\ccpY8M8W.s 			page 32


 1437 061e C9020000 		.4byte	.LASF62
 1438 0622 C9020000 		.4byte	.LASF62
 1439 0626 0F       		.byte	0xf
 1440 0627 25       		.byte	0x25
 1441 0628 18       		.uleb128 0x18
 1442 0629 12010000 		.4byte	.LASF63
 1443 062d 12010000 		.4byte	.LASF63
 1444 0631 0B       		.byte	0xb
 1445 0632 6B       		.byte	0x6b
 1446 0633 18       		.uleb128 0x18
 1447 0634 46020000 		.4byte	.LASF64
 1448 0638 46020000 		.4byte	.LASF64
 1449 063c 0B       		.byte	0xb
 1450 063d 86       		.byte	0x86
 1451 063e 18       		.uleb128 0x18
 1452 063f 0F000000 		.4byte	.LASF65
 1453 0643 0F000000 		.4byte	.LASF65
 1454 0647 0A       		.byte	0xa
 1455 0648 18       		.byte	0x18
 1456 0649 18       		.uleb128 0x18
 1457 064a DE020000 		.4byte	.LASF66
 1458 064e DE020000 		.4byte	.LASF66
 1459 0652 0C       		.byte	0xc
 1460 0653 18       		.byte	0x18
 1461 0654 18       		.uleb128 0x18
 1462 0655 69020000 		.4byte	.LASF67
 1463 0659 69020000 		.4byte	.LASF67
 1464 065d 10       		.byte	0x10
 1465 065e 18       		.byte	0x18
 1466 065f 19       		.uleb128 0x19
 1467 0660 72000000 		.4byte	.LASF68
 1468 0664 72000000 		.4byte	.LASF68
 1469 0668 05       		.byte	0x5
 1470 0669 2E01     		.2byte	0x12e
 1471 066b 00       		.byte	0
 1472              		.section	.debug_abbrev,"",%progbits
 1473              	.Ldebug_abbrev0:
 1474 0000 01       		.uleb128 0x1
 1475 0001 11       		.uleb128 0x11
 1476 0002 01       		.byte	0x1
 1477 0003 25       		.uleb128 0x25
 1478 0004 0E       		.uleb128 0xe
 1479 0005 13       		.uleb128 0x13
 1480 0006 0B       		.uleb128 0xb
 1481 0007 03       		.uleb128 0x3
 1482 0008 0E       		.uleb128 0xe
 1483 0009 1B       		.uleb128 0x1b
 1484 000a 0E       		.uleb128 0xe
 1485 000b 55       		.uleb128 0x55
 1486 000c 17       		.uleb128 0x17
 1487 000d 11       		.uleb128 0x11
 1488 000e 01       		.uleb128 0x1
 1489 000f 10       		.uleb128 0x10
 1490 0010 17       		.uleb128 0x17
 1491 0011 00       		.byte	0
 1492 0012 00       		.byte	0
 1493 0013 02       		.uleb128 0x2
ARM GAS  C:\Users\winstona\AppData\Local\Temp\ccpY8M8W.s 			page 33


 1494 0014 24       		.uleb128 0x24
 1495 0015 00       		.byte	0
 1496 0016 0B       		.uleb128 0xb
 1497 0017 0B       		.uleb128 0xb
 1498 0018 3E       		.uleb128 0x3e
 1499 0019 0B       		.uleb128 0xb
 1500 001a 03       		.uleb128 0x3
 1501 001b 0E       		.uleb128 0xe
 1502 001c 00       		.byte	0
 1503 001d 00       		.byte	0
 1504 001e 03       		.uleb128 0x3
 1505 001f 24       		.uleb128 0x24
 1506 0020 00       		.byte	0
 1507 0021 0B       		.uleb128 0xb
 1508 0022 0B       		.uleb128 0xb
 1509 0023 3E       		.uleb128 0x3e
 1510 0024 0B       		.uleb128 0xb
 1511 0025 03       		.uleb128 0x3
 1512 0026 08       		.uleb128 0x8
 1513 0027 00       		.byte	0
 1514 0028 00       		.byte	0
 1515 0029 04       		.uleb128 0x4
 1516 002a 16       		.uleb128 0x16
 1517 002b 00       		.byte	0
 1518 002c 03       		.uleb128 0x3
 1519 002d 0E       		.uleb128 0xe
 1520 002e 3A       		.uleb128 0x3a
 1521 002f 0B       		.uleb128 0xb
 1522 0030 3B       		.uleb128 0x3b
 1523 0031 0B       		.uleb128 0xb
 1524 0032 49       		.uleb128 0x49
 1525 0033 13       		.uleb128 0x13
 1526 0034 00       		.byte	0
 1527 0035 00       		.byte	0
 1528 0036 05       		.uleb128 0x5
 1529 0037 16       		.uleb128 0x16
 1530 0038 00       		.byte	0
 1531 0039 03       		.uleb128 0x3
 1532 003a 0E       		.uleb128 0xe
 1533 003b 3A       		.uleb128 0x3a
 1534 003c 0B       		.uleb128 0xb
 1535 003d 3B       		.uleb128 0x3b
 1536 003e 05       		.uleb128 0x5
 1537 003f 49       		.uleb128 0x49
 1538 0040 13       		.uleb128 0x13
 1539 0041 00       		.byte	0
 1540 0042 00       		.byte	0
 1541 0043 06       		.uleb128 0x6
 1542 0044 35       		.uleb128 0x35
 1543 0045 00       		.byte	0
 1544 0046 49       		.uleb128 0x49
 1545 0047 13       		.uleb128 0x13
 1546 0048 00       		.byte	0
 1547 0049 00       		.byte	0
 1548 004a 07       		.uleb128 0x7
 1549 004b 04       		.uleb128 0x4
 1550 004c 01       		.byte	0x1
ARM GAS  C:\Users\winstona\AppData\Local\Temp\ccpY8M8W.s 			page 34


 1551 004d 0B       		.uleb128 0xb
 1552 004e 0B       		.uleb128 0xb
 1553 004f 49       		.uleb128 0x49
 1554 0050 13       		.uleb128 0x13
 1555 0051 3A       		.uleb128 0x3a
 1556 0052 0B       		.uleb128 0xb
 1557 0053 3B       		.uleb128 0x3b
 1558 0054 0B       		.uleb128 0xb
 1559 0055 01       		.uleb128 0x1
 1560 0056 13       		.uleb128 0x13
 1561 0057 00       		.byte	0
 1562 0058 00       		.byte	0
 1563 0059 08       		.uleb128 0x8
 1564 005a 28       		.uleb128 0x28
 1565 005b 00       		.byte	0
 1566 005c 03       		.uleb128 0x3
 1567 005d 0E       		.uleb128 0xe
 1568 005e 1C       		.uleb128 0x1c
 1569 005f 0B       		.uleb128 0xb
 1570 0060 00       		.byte	0
 1571 0061 00       		.byte	0
 1572 0062 09       		.uleb128 0x9
 1573 0063 2E       		.uleb128 0x2e
 1574 0064 01       		.byte	0x1
 1575 0065 3F       		.uleb128 0x3f
 1576 0066 19       		.uleb128 0x19
 1577 0067 03       		.uleb128 0x3
 1578 0068 0E       		.uleb128 0xe
 1579 0069 3A       		.uleb128 0x3a
 1580 006a 0B       		.uleb128 0xb
 1581 006b 3B       		.uleb128 0x3b
 1582 006c 0B       		.uleb128 0xb
 1583 006d 27       		.uleb128 0x27
 1584 006e 19       		.uleb128 0x19
 1585 006f 11       		.uleb128 0x11
 1586 0070 01       		.uleb128 0x1
 1587 0071 12       		.uleb128 0x12
 1588 0072 06       		.uleb128 0x6
 1589 0073 40       		.uleb128 0x40
 1590 0074 18       		.uleb128 0x18
 1591 0075 9742     		.uleb128 0x2117
 1592 0077 19       		.uleb128 0x19
 1593 0078 01       		.uleb128 0x1
 1594 0079 13       		.uleb128 0x13
 1595 007a 00       		.byte	0
 1596 007b 00       		.byte	0
 1597 007c 0A       		.uleb128 0xa
 1598 007d 898201   		.uleb128 0x4109
 1599 0080 01       		.byte	0x1
 1600 0081 11       		.uleb128 0x11
 1601 0082 01       		.uleb128 0x1
 1602 0083 31       		.uleb128 0x31
 1603 0084 13       		.uleb128 0x13
 1604 0085 01       		.uleb128 0x1
 1605 0086 13       		.uleb128 0x13
 1606 0087 00       		.byte	0
 1607 0088 00       		.byte	0
ARM GAS  C:\Users\winstona\AppData\Local\Temp\ccpY8M8W.s 			page 35


 1608 0089 0B       		.uleb128 0xb
 1609 008a 8A8201   		.uleb128 0x410a
 1610 008d 00       		.byte	0
 1611 008e 02       		.uleb128 0x2
 1612 008f 18       		.uleb128 0x18
 1613 0090 9142     		.uleb128 0x2111
 1614 0092 18       		.uleb128 0x18
 1615 0093 00       		.byte	0
 1616 0094 00       		.byte	0
 1617 0095 0C       		.uleb128 0xc
 1618 0096 898201   		.uleb128 0x4109
 1619 0099 01       		.byte	0x1
 1620 009a 11       		.uleb128 0x11
 1621 009b 01       		.uleb128 0x1
 1622 009c 31       		.uleb128 0x31
 1623 009d 13       		.uleb128 0x13
 1624 009e 00       		.byte	0
 1625 009f 00       		.byte	0
 1626 00a0 0D       		.uleb128 0xd
 1627 00a1 898201   		.uleb128 0x4109
 1628 00a4 00       		.byte	0
 1629 00a5 11       		.uleb128 0x11
 1630 00a6 01       		.uleb128 0x1
 1631 00a7 31       		.uleb128 0x31
 1632 00a8 13       		.uleb128 0x13
 1633 00a9 00       		.byte	0
 1634 00aa 00       		.byte	0
 1635 00ab 0E       		.uleb128 0xe
 1636 00ac 2E       		.uleb128 0x2e
 1637 00ad 01       		.byte	0x1
 1638 00ae 3F       		.uleb128 0x3f
 1639 00af 19       		.uleb128 0x19
 1640 00b0 03       		.uleb128 0x3
 1641 00b1 0E       		.uleb128 0xe
 1642 00b2 3A       		.uleb128 0x3a
 1643 00b3 0B       		.uleb128 0xb
 1644 00b4 3B       		.uleb128 0x3b
 1645 00b5 0B       		.uleb128 0xb
 1646 00b6 27       		.uleb128 0x27
 1647 00b7 19       		.uleb128 0x19
 1648 00b8 49       		.uleb128 0x49
 1649 00b9 13       		.uleb128 0x13
 1650 00ba 8701     		.uleb128 0x87
 1651 00bc 19       		.uleb128 0x19
 1652 00bd 11       		.uleb128 0x11
 1653 00be 01       		.uleb128 0x1
 1654 00bf 12       		.uleb128 0x12
 1655 00c0 06       		.uleb128 0x6
 1656 00c1 40       		.uleb128 0x40
 1657 00c2 18       		.uleb128 0x18
 1658 00c3 9742     		.uleb128 0x2117
 1659 00c5 19       		.uleb128 0x19
 1660 00c6 01       		.uleb128 0x1
 1661 00c7 13       		.uleb128 0x13
 1662 00c8 00       		.byte	0
 1663 00c9 00       		.byte	0
 1664 00ca 0F       		.uleb128 0xf
ARM GAS  C:\Users\winstona\AppData\Local\Temp\ccpY8M8W.s 			page 36


 1665 00cb 0B       		.uleb128 0xb
 1666 00cc 01       		.byte	0x1
 1667 00cd 11       		.uleb128 0x11
 1668 00ce 01       		.uleb128 0x1
 1669 00cf 12       		.uleb128 0x12
 1670 00d0 06       		.uleb128 0x6
 1671 00d1 01       		.uleb128 0x1
 1672 00d2 13       		.uleb128 0x13
 1673 00d3 00       		.byte	0
 1674 00d4 00       		.byte	0
 1675 00d5 10       		.uleb128 0x10
 1676 00d6 34       		.uleb128 0x34
 1677 00d7 00       		.byte	0
 1678 00d8 03       		.uleb128 0x3
 1679 00d9 0E       		.uleb128 0xe
 1680 00da 3A       		.uleb128 0x3a
 1681 00db 0B       		.uleb128 0xb
 1682 00dc 3B       		.uleb128 0x3b
 1683 00dd 0B       		.uleb128 0xb
 1684 00de 49       		.uleb128 0x49
 1685 00df 13       		.uleb128 0x13
 1686 00e0 02       		.uleb128 0x2
 1687 00e1 17       		.uleb128 0x17
 1688 00e2 00       		.byte	0
 1689 00e3 00       		.byte	0
 1690 00e4 11       		.uleb128 0x11
 1691 00e5 34       		.uleb128 0x34
 1692 00e6 00       		.byte	0
 1693 00e7 03       		.uleb128 0x3
 1694 00e8 0E       		.uleb128 0xe
 1695 00e9 3A       		.uleb128 0x3a
 1696 00ea 0B       		.uleb128 0xb
 1697 00eb 3B       		.uleb128 0x3b
 1698 00ec 05       		.uleb128 0x5
 1699 00ed 49       		.uleb128 0x49
 1700 00ee 13       		.uleb128 0x13
 1701 00ef 02       		.uleb128 0x2
 1702 00f0 17       		.uleb128 0x17
 1703 00f1 00       		.byte	0
 1704 00f2 00       		.byte	0
 1705 00f3 12       		.uleb128 0x12
 1706 00f4 34       		.uleb128 0x34
 1707 00f5 00       		.byte	0
 1708 00f6 03       		.uleb128 0x3
 1709 00f7 0E       		.uleb128 0xe
 1710 00f8 3A       		.uleb128 0x3a
 1711 00f9 0B       		.uleb128 0xb
 1712 00fa 3B       		.uleb128 0x3b
 1713 00fb 05       		.uleb128 0x5
 1714 00fc 49       		.uleb128 0x49
 1715 00fd 13       		.uleb128 0x13
 1716 00fe 3F       		.uleb128 0x3f
 1717 00ff 19       		.uleb128 0x19
 1718 0100 3C       		.uleb128 0x3c
 1719 0101 19       		.uleb128 0x19
 1720 0102 00       		.byte	0
 1721 0103 00       		.byte	0
ARM GAS  C:\Users\winstona\AppData\Local\Temp\ccpY8M8W.s 			page 37


 1722 0104 13       		.uleb128 0x13
 1723 0105 34       		.uleb128 0x34
 1724 0106 00       		.byte	0
 1725 0107 03       		.uleb128 0x3
 1726 0108 0E       		.uleb128 0xe
 1727 0109 3A       		.uleb128 0x3a
 1728 010a 0B       		.uleb128 0xb
 1729 010b 3B       		.uleb128 0x3b
 1730 010c 0B       		.uleb128 0xb
 1731 010d 49       		.uleb128 0x49
 1732 010e 13       		.uleb128 0x13
 1733 010f 3F       		.uleb128 0x3f
 1734 0110 19       		.uleb128 0x19
 1735 0111 02       		.uleb128 0x2
 1736 0112 18       		.uleb128 0x18
 1737 0113 00       		.byte	0
 1738 0114 00       		.byte	0
 1739 0115 14       		.uleb128 0x14
 1740 0116 01       		.uleb128 0x1
 1741 0117 01       		.byte	0x1
 1742 0118 49       		.uleb128 0x49
 1743 0119 13       		.uleb128 0x13
 1744 011a 01       		.uleb128 0x1
 1745 011b 13       		.uleb128 0x13
 1746 011c 00       		.byte	0
 1747 011d 00       		.byte	0
 1748 011e 15       		.uleb128 0x15
 1749 011f 21       		.uleb128 0x21
 1750 0120 00       		.byte	0
 1751 0121 49       		.uleb128 0x49
 1752 0122 13       		.uleb128 0x13
 1753 0123 2F       		.uleb128 0x2f
 1754 0124 05       		.uleb128 0x5
 1755 0125 00       		.byte	0
 1756 0126 00       		.byte	0
 1757 0127 16       		.uleb128 0x16
 1758 0128 21       		.uleb128 0x21
 1759 0129 00       		.byte	0
 1760 012a 49       		.uleb128 0x49
 1761 012b 13       		.uleb128 0x13
 1762 012c 2F       		.uleb128 0x2f
 1763 012d 0B       		.uleb128 0xb
 1764 012e 00       		.byte	0
 1765 012f 00       		.byte	0
 1766 0130 17       		.uleb128 0x17
 1767 0131 34       		.uleb128 0x34
 1768 0132 00       		.byte	0
 1769 0133 03       		.uleb128 0x3
 1770 0134 08       		.uleb128 0x8
 1771 0135 3A       		.uleb128 0x3a
 1772 0136 0B       		.uleb128 0xb
 1773 0137 3B       		.uleb128 0x3b
 1774 0138 0B       		.uleb128 0xb
 1775 0139 49       		.uleb128 0x49
 1776 013a 13       		.uleb128 0x13
 1777 013b 3F       		.uleb128 0x3f
 1778 013c 19       		.uleb128 0x19
ARM GAS  C:\Users\winstona\AppData\Local\Temp\ccpY8M8W.s 			page 38


 1779 013d 02       		.uleb128 0x2
 1780 013e 18       		.uleb128 0x18
 1781 013f 00       		.byte	0
 1782 0140 00       		.byte	0
 1783 0141 18       		.uleb128 0x18
 1784 0142 2E       		.uleb128 0x2e
 1785 0143 00       		.byte	0
 1786 0144 3F       		.uleb128 0x3f
 1787 0145 19       		.uleb128 0x19
 1788 0146 3C       		.uleb128 0x3c
 1789 0147 19       		.uleb128 0x19
 1790 0148 6E       		.uleb128 0x6e
 1791 0149 0E       		.uleb128 0xe
 1792 014a 03       		.uleb128 0x3
 1793 014b 0E       		.uleb128 0xe
 1794 014c 3A       		.uleb128 0x3a
 1795 014d 0B       		.uleb128 0xb
 1796 014e 3B       		.uleb128 0x3b
 1797 014f 0B       		.uleb128 0xb
 1798 0150 00       		.byte	0
 1799 0151 00       		.byte	0
 1800 0152 19       		.uleb128 0x19
 1801 0153 2E       		.uleb128 0x2e
 1802 0154 00       		.byte	0
 1803 0155 3F       		.uleb128 0x3f
 1804 0156 19       		.uleb128 0x19
 1805 0157 3C       		.uleb128 0x3c
 1806 0158 19       		.uleb128 0x19
 1807 0159 6E       		.uleb128 0x6e
 1808 015a 0E       		.uleb128 0xe
 1809 015b 03       		.uleb128 0x3
 1810 015c 0E       		.uleb128 0xe
 1811 015d 3A       		.uleb128 0x3a
 1812 015e 0B       		.uleb128 0xb
 1813 015f 3B       		.uleb128 0x3b
 1814 0160 05       		.uleb128 0x5
 1815 0161 00       		.byte	0
 1816 0162 00       		.byte	0
 1817 0163 00       		.byte	0
 1818              		.section	.debug_loc,"",%progbits
 1819              	.Ldebug_loc0:
 1820              	.LLST0:
 1821 0000 24000000 		.4byte	.LVL32
 1822 0004 2A000000 		.4byte	.LVL33
 1823 0008 0100     		.2byte	0x1
 1824 000a 53       		.byte	0x53
 1825 000b 2A000000 		.4byte	.LVL33
 1826 000f 39000000 		.4byte	.LVL35-1
 1827 0013 0500     		.2byte	0x5
 1828 0015 03       		.byte	0x3
 1829 0016 00000000 		.4byte	systemState
 1830 001a 10010000 		.4byte	.LVL57
 1831 001e 16010000 		.4byte	.LVL58
 1832 0022 0100     		.2byte	0x1
 1833 0024 53       		.byte	0x53
 1834 0025 16010000 		.4byte	.LVL58
 1835 0029 23010000 		.4byte	.LVL59-1
ARM GAS  C:\Users\winstona\AppData\Local\Temp\ccpY8M8W.s 			page 39


 1836 002d 0500     		.2byte	0x5
 1837 002f 03       		.byte	0x3
 1838 0030 00000000 		.4byte	systemState
 1839 0034 30010000 		.4byte	.LVL60
 1840 0038 34010000 		.4byte	.LVL61
 1841 003c 0100     		.2byte	0x1
 1842 003e 53       		.byte	0x53
 1843 003f 34010000 		.4byte	.LVL61
 1844 0043 68010000 		.4byte	.LFE68
 1845 0047 0500     		.2byte	0x5
 1846 0049 03       		.byte	0x3
 1847 004a 00000000 		.4byte	systemState
 1848 004e 00000000 		.4byte	0
 1849 0052 00000000 		.4byte	0
 1850              	.LLST1:
 1851 0056 36000000 		.4byte	.LVL34
 1852 005a 66000000 		.4byte	.LVL38
 1853 005e 0100     		.2byte	0x1
 1854 0060 54       		.byte	0x54
 1855 0061 EC000000 		.4byte	.LVL53
 1856 0065 10010000 		.4byte	.LVL57
 1857 0069 0100     		.2byte	0x1
 1858 006b 54       		.byte	0x54
 1859 006c 00000000 		.4byte	0
 1860 0070 00000000 		.4byte	0
 1861              	.LLST2:
 1862 0074 3A000000 		.4byte	.LVL35
 1863 0078 5B000000 		.4byte	.LVL36-1
 1864 007c 0100     		.2byte	0x1
 1865 007e 50       		.byte	0x50
 1866 007f 5E000000 		.4byte	.LVL37
 1867 0083 A6000000 		.4byte	.LVL45
 1868 0087 0100     		.2byte	0x1
 1869 0089 50       		.byte	0x50
 1870 008a B0000000 		.4byte	.LVL47
 1871 008e F0000000 		.4byte	.LVL54
 1872 0092 0100     		.2byte	0x1
 1873 0094 50       		.byte	0x50
 1874 0095 00000000 		.4byte	0
 1875 0099 00000000 		.4byte	0
 1876              	.LLST3:
 1877 009d 76000000 		.4byte	.LVL39
 1878 00a1 A9000000 		.4byte	.LVL46-1
 1879 00a5 0100     		.2byte	0x1
 1880 00a7 51       		.byte	0x51
 1881 00a8 B0000000 		.4byte	.LVL47
 1882 00ac C0000000 		.4byte	.LVL49
 1883 00b0 0100     		.2byte	0x1
 1884 00b2 51       		.byte	0x51
 1885 00b3 C0000000 		.4byte	.LVL49
 1886 00b7 EC000000 		.4byte	.LVL53
 1887 00bb 0700     		.2byte	0x7
 1888 00bd 0A       		.byte	0xa
 1889 00be 3D03     		.2byte	0x33d
 1890 00c0 70       		.byte	0x70
 1891 00c1 00       		.sleb128 0
 1892 00c2 1C       		.byte	0x1c
ARM GAS  C:\Users\winstona\AppData\Local\Temp\ccpY8M8W.s 			page 40


 1893 00c3 9F       		.byte	0x9f
 1894 00c4 00000000 		.4byte	0
 1895 00c8 00000000 		.4byte	0
 1896              	.LLST4:
 1897 00cc 88000000 		.4byte	.LVL40
 1898 00d0 BE000000 		.4byte	.LVL48
 1899 00d4 0100     		.2byte	0x1
 1900 00d6 55       		.byte	0x55
 1901 00d7 BE000000 		.4byte	.LVL48
 1902 00db C0000000 		.4byte	.LVL49
 1903 00df 2300     		.2byte	0x23
 1904 00e1 71       		.byte	0x71
 1905 00e2 00       		.sleb128 0
 1906 00e3 71       		.byte	0x71
 1907 00e4 00       		.sleb128 0
 1908 00e5 F7       		.byte	0xf7
 1909 00e6 33       		.uleb128 0x33
 1910 00e7 F7       		.byte	0xf7
 1911 00e8 25       		.uleb128 0x25
 1912 00e9 0C       		.byte	0xc
 1913 00ea 1F85EB51 		.4byte	0x51eb851f
 1914 00ee F7       		.byte	0xf7
 1915 00ef 25       		.uleb128 0x25
 1916 00f0 1E       		.byte	0x1e
 1917 00f1 08       		.byte	0x8
 1918 00f2 20       		.byte	0x20
 1919 00f3 F7       		.byte	0xf7
 1920 00f4 25       		.uleb128 0x25
 1921 00f5 25       		.byte	0x25
 1922 00f6 F7       		.byte	0xf7
 1923 00f7 2C       		.uleb128 0x2c
 1924 00f8 34       		.byte	0x34
 1925 00f9 26       		.byte	0x26
 1926 00fa 71       		.byte	0x71
 1927 00fb 00       		.sleb128 0
 1928 00fc 4F       		.byte	0x4f
 1929 00fd 26       		.byte	0x26
 1930 00fe 1C       		.byte	0x1c
 1931 00ff 76       		.byte	0x76
 1932 0100 00       		.sleb128 0
 1933 0101 1E       		.byte	0x1e
 1934 0102 1C       		.byte	0x1c
 1935 0103 9F       		.byte	0x9f
 1936 0104 C0000000 		.4byte	.LVL49
 1937 0108 EC000000 		.4byte	.LVL53
 1938 010c 2F00     		.2byte	0x2f
 1939 010e 0A       		.byte	0xa
 1940 010f 3D03     		.2byte	0x33d
 1941 0111 70       		.byte	0x70
 1942 0112 00       		.sleb128 0
 1943 0113 1C       		.byte	0x1c
 1944 0114 0A       		.byte	0xa
 1945 0115 3D03     		.2byte	0x33d
 1946 0117 70       		.byte	0x70
 1947 0118 00       		.sleb128 0
 1948 0119 1C       		.byte	0x1c
 1949 011a F7       		.byte	0xf7
ARM GAS  C:\Users\winstona\AppData\Local\Temp\ccpY8M8W.s 			page 41


 1950 011b 33       		.uleb128 0x33
 1951 011c F7       		.byte	0xf7
 1952 011d 25       		.uleb128 0x25
 1953 011e 0C       		.byte	0xc
 1954 011f 1F85EB51 		.4byte	0x51eb851f
 1955 0123 F7       		.byte	0xf7
 1956 0124 25       		.uleb128 0x25
 1957 0125 1E       		.byte	0x1e
 1958 0126 08       		.byte	0x8
 1959 0127 20       		.byte	0x20
 1960 0128 F7       		.byte	0xf7
 1961 0129 25       		.uleb128 0x25
 1962 012a 25       		.byte	0x25
 1963 012b F7       		.byte	0xf7
 1964 012c 2C       		.uleb128 0x2c
 1965 012d 34       		.byte	0x34
 1966 012e 26       		.byte	0x26
 1967 012f 0A       		.byte	0xa
 1968 0130 3D03     		.2byte	0x33d
 1969 0132 70       		.byte	0x70
 1970 0133 00       		.sleb128 0
 1971 0134 1C       		.byte	0x1c
 1972 0135 4F       		.byte	0x4f
 1973 0136 26       		.byte	0x26
 1974 0137 1C       		.byte	0x1c
 1975 0138 76       		.byte	0x76
 1976 0139 00       		.sleb128 0
 1977 013a 1E       		.byte	0x1e
 1978 013b 1C       		.byte	0x1c
 1979 013c 9F       		.byte	0x9f
 1980 013d 00000000 		.4byte	0
 1981 0141 00000000 		.4byte	0
 1982              	.LLST5:
 1983 0145 92000000 		.4byte	.LVL41
 1984 0149 A0000000 		.4byte	.LVL44
 1985 014d 0100     		.2byte	0x1
 1986 014f 53       		.byte	0x53
 1987 0150 A0000000 		.4byte	.LVL44
 1988 0154 A9000000 		.4byte	.LVL46-1
 1989 0158 2200     		.2byte	0x22
 1990 015a 71       		.byte	0x71
 1991 015b 00       		.sleb128 0
 1992 015c F7       		.byte	0xf7
 1993 015d 33       		.uleb128 0x33
 1994 015e F7       		.byte	0xf7
 1995 015f 25       		.uleb128 0x25
 1996 0160 0C       		.byte	0xc
 1997 0161 1F85EB51 		.4byte	0x51eb851f
 1998 0165 F7       		.byte	0xf7
 1999 0166 25       		.uleb128 0x25
 2000 0167 1E       		.byte	0x1e
 2001 0168 08       		.byte	0x8
 2002 0169 20       		.byte	0x20
 2003 016a F7       		.byte	0xf7
 2004 016b 25       		.uleb128 0x25
 2005 016c 25       		.byte	0x25
 2006 016d F7       		.byte	0xf7
ARM GAS  C:\Users\winstona\AppData\Local\Temp\ccpY8M8W.s 			page 42


 2007 016e 2C       		.uleb128 0x2c
 2008 016f 34       		.byte	0x34
 2009 0170 26       		.byte	0x26
 2010 0171 71       		.byte	0x71
 2011 0172 00       		.sleb128 0
 2012 0173 4F       		.byte	0x4f
 2013 0174 26       		.byte	0x26
 2014 0175 1C       		.byte	0x1c
 2015 0176 75       		.byte	0x75
 2016 0177 00       		.sleb128 0
 2017 0178 48       		.byte	0x48
 2018 0179 2B       		.byte	0x2b
 2019 017a 22       		.byte	0x22
 2020 017b 9F       		.byte	0x9f
 2021 017c B0000000 		.4byte	.LVL47
 2022 0180 CA000000 		.4byte	.LVL50
 2023 0184 0100     		.2byte	0x1
 2024 0186 53       		.byte	0x53
 2025 0187 CA000000 		.4byte	.LVL50
 2026 018b EC000000 		.4byte	.LVL53
 2027 018f 5600     		.2byte	0x56
 2028 0191 0A       		.byte	0xa
 2029 0192 3D03     		.2byte	0x33d
 2030 0194 70       		.byte	0x70
 2031 0195 00       		.sleb128 0
 2032 0196 1C       		.byte	0x1c
 2033 0197 F7       		.byte	0xf7
 2034 0198 33       		.uleb128 0x33
 2035 0199 F7       		.byte	0xf7
 2036 019a 25       		.uleb128 0x25
 2037 019b 0C       		.byte	0xc
 2038 019c 1F85EB51 		.4byte	0x51eb851f
 2039 01a0 F7       		.byte	0xf7
 2040 01a1 25       		.uleb128 0x25
 2041 01a2 1E       		.byte	0x1e
 2042 01a3 08       		.byte	0x8
 2043 01a4 20       		.byte	0x20
 2044 01a5 F7       		.byte	0xf7
 2045 01a6 25       		.uleb128 0x25
 2046 01a7 25       		.byte	0x25
 2047 01a8 F7       		.byte	0xf7
 2048 01a9 2C       		.uleb128 0x2c
 2049 01aa 34       		.byte	0x34
 2050 01ab 26       		.byte	0x26
 2051 01ac 0A       		.byte	0xa
 2052 01ad 3D03     		.2byte	0x33d
 2053 01af 70       		.byte	0x70
 2054 01b0 00       		.sleb128 0
 2055 01b1 1C       		.byte	0x1c
 2056 01b2 4F       		.byte	0x4f
 2057 01b3 26       		.byte	0x26
 2058 01b4 1C       		.byte	0x1c
 2059 01b5 0A       		.byte	0xa
 2060 01b6 3D03     		.2byte	0x33d
 2061 01b8 70       		.byte	0x70
 2062 01b9 00       		.sleb128 0
 2063 01ba 1C       		.byte	0x1c
ARM GAS  C:\Users\winstona\AppData\Local\Temp\ccpY8M8W.s 			page 43


 2064 01bb 0A       		.byte	0xa
 2065 01bc 3D03     		.2byte	0x33d
 2066 01be 70       		.byte	0x70
 2067 01bf 00       		.sleb128 0
 2068 01c0 1C       		.byte	0x1c
 2069 01c1 F7       		.byte	0xf7
 2070 01c2 33       		.uleb128 0x33
 2071 01c3 F7       		.byte	0xf7
 2072 01c4 25       		.uleb128 0x25
 2073 01c5 0C       		.byte	0xc
 2074 01c6 1F85EB51 		.4byte	0x51eb851f
 2075 01ca F7       		.byte	0xf7
 2076 01cb 25       		.uleb128 0x25
 2077 01cc 1E       		.byte	0x1e
 2078 01cd 08       		.byte	0x8
 2079 01ce 20       		.byte	0x20
 2080 01cf F7       		.byte	0xf7
 2081 01d0 25       		.uleb128 0x25
 2082 01d1 25       		.byte	0x25
 2083 01d2 F7       		.byte	0xf7
 2084 01d3 2C       		.uleb128 0x2c
 2085 01d4 34       		.byte	0x34
 2086 01d5 26       		.byte	0x26
 2087 01d6 0A       		.byte	0xa
 2088 01d7 3D03     		.2byte	0x33d
 2089 01d9 70       		.byte	0x70
 2090 01da 00       		.sleb128 0
 2091 01db 1C       		.byte	0x1c
 2092 01dc 4F       		.byte	0x4f
 2093 01dd 26       		.byte	0x26
 2094 01de 1C       		.byte	0x1c
 2095 01df 76       		.byte	0x76
 2096 01e0 00       		.sleb128 0
 2097 01e1 1E       		.byte	0x1e
 2098 01e2 1C       		.byte	0x1c
 2099 01e3 48       		.byte	0x48
 2100 01e4 2B       		.byte	0x2b
 2101 01e5 22       		.byte	0x22
 2102 01e6 9F       		.byte	0x9f
 2103 01e7 00000000 		.4byte	0
 2104 01eb 00000000 		.4byte	0
 2105              	.LLST6:
 2106 01ef 98000000 		.4byte	.LVL42
 2107 01f3 9E000000 		.4byte	.LVL43
 2108 01f7 0100     		.2byte	0x1
 2109 01f9 52       		.byte	0x52
 2110 01fa 9E000000 		.4byte	.LVL43
 2111 01fe A0000000 		.4byte	.LVL44
 2112 0202 0A00     		.2byte	0xa
 2113 0204 73       		.byte	0x73
 2114 0205 00       		.sleb128 0
 2115 0206 4F       		.byte	0x4f
 2116 0207 25       		.byte	0x25
 2117 0208 73       		.byte	0x73
 2118 0209 00       		.sleb128 0
 2119 020a 22       		.byte	0x22
 2120 020b 31       		.byte	0x31
ARM GAS  C:\Users\winstona\AppData\Local\Temp\ccpY8M8W.s 			page 44


 2121 020c 26       		.byte	0x26
 2122 020d 9F       		.byte	0x9f
 2123 020e A0000000 		.4byte	.LVL44
 2124 0212 A9000000 		.4byte	.LVL46-1
 2125 0216 4800     		.2byte	0x48
 2126 0218 71       		.byte	0x71
 2127 0219 00       		.sleb128 0
 2128 021a F7       		.byte	0xf7
 2129 021b 33       		.uleb128 0x33
 2130 021c F7       		.byte	0xf7
 2131 021d 25       		.uleb128 0x25
 2132 021e 0C       		.byte	0xc
 2133 021f 1F85EB51 		.4byte	0x51eb851f
 2134 0223 F7       		.byte	0xf7
 2135 0224 25       		.uleb128 0x25
 2136 0225 1E       		.byte	0x1e
 2137 0226 08       		.byte	0x8
 2138 0227 20       		.byte	0x20
 2139 0228 F7       		.byte	0xf7
 2140 0229 25       		.uleb128 0x25
 2141 022a 25       		.byte	0x25
 2142 022b F7       		.byte	0xf7
 2143 022c 2C       		.uleb128 0x2c
 2144 022d 34       		.byte	0x34
 2145 022e 26       		.byte	0x26
 2146 022f 71       		.byte	0x71
 2147 0230 00       		.sleb128 0
 2148 0231 F7       		.byte	0xf7
 2149 0232 33       		.uleb128 0x33
 2150 0233 F7       		.byte	0xf7
 2151 0234 25       		.uleb128 0x25
 2152 0235 0C       		.byte	0xc
 2153 0236 1F85EB51 		.4byte	0x51eb851f
 2154 023a F7       		.byte	0xf7
 2155 023b 25       		.uleb128 0x25
 2156 023c 1E       		.byte	0x1e
 2157 023d 08       		.byte	0x8
 2158 023e 20       		.byte	0x20
 2159 023f F7       		.byte	0xf7
 2160 0240 25       		.uleb128 0x25
 2161 0241 25       		.byte	0x25
 2162 0242 F7       		.byte	0xf7
 2163 0243 2C       		.uleb128 0x2c
 2164 0244 34       		.byte	0x34
 2165 0245 26       		.byte	0x26
 2166 0246 71       		.byte	0x71
 2167 0247 00       		.sleb128 0
 2168 0248 4F       		.byte	0x4f
 2169 0249 26       		.byte	0x26
 2170 024a 1C       		.byte	0x1c
 2171 024b 75       		.byte	0x75
 2172 024c 00       		.sleb128 0
 2173 024d 48       		.byte	0x48
 2174 024e 2B       		.byte	0x2b
 2175 024f 22       		.byte	0x22
 2176 0250 4F       		.byte	0x4f
 2177 0251 25       		.byte	0x25
ARM GAS  C:\Users\winstona\AppData\Local\Temp\ccpY8M8W.s 			page 45


 2178 0252 22       		.byte	0x22
 2179 0253 71       		.byte	0x71
 2180 0254 00       		.sleb128 0
 2181 0255 4F       		.byte	0x4f
 2182 0256 26       		.byte	0x26
 2183 0257 1C       		.byte	0x1c
 2184 0258 75       		.byte	0x75
 2185 0259 00       		.sleb128 0
 2186 025a 48       		.byte	0x48
 2187 025b 2B       		.byte	0x2b
 2188 025c 22       		.byte	0x22
 2189 025d 31       		.byte	0x31
 2190 025e 26       		.byte	0x26
 2191 025f 9F       		.byte	0x9f
 2192 0260 B0000000 		.4byte	.LVL47
 2193 0264 D0000000 		.4byte	.LVL51
 2194 0268 0100     		.2byte	0x1
 2195 026a 52       		.byte	0x52
 2196 026b D0000000 		.4byte	.LVL51
 2197 026f E4000000 		.4byte	.LVL52
 2198 0273 B000     		.2byte	0xb0
 2199 0275 0A       		.byte	0xa
 2200 0276 3D03     		.2byte	0x33d
 2201 0278 70       		.byte	0x70
 2202 0279 00       		.sleb128 0
 2203 027a 1C       		.byte	0x1c
 2204 027b F7       		.byte	0xf7
 2205 027c 33       		.uleb128 0x33
 2206 027d F7       		.byte	0xf7
 2207 027e 25       		.uleb128 0x25
 2208 027f 0C       		.byte	0xc
 2209 0280 1F85EB51 		.4byte	0x51eb851f
 2210 0284 F7       		.byte	0xf7
 2211 0285 25       		.uleb128 0x25
 2212 0286 1E       		.byte	0x1e
 2213 0287 08       		.byte	0x8
 2214 0288 20       		.byte	0x20
 2215 0289 F7       		.byte	0xf7
 2216 028a 25       		.uleb128 0x25
 2217 028b 25       		.byte	0x25
 2218 028c F7       		.byte	0xf7
 2219 028d 2C       		.uleb128 0x2c
 2220 028e 34       		.byte	0x34
 2221 028f 26       		.byte	0x26
 2222 0290 0A       		.byte	0xa
 2223 0291 3D03     		.2byte	0x33d
 2224 0293 70       		.byte	0x70
 2225 0294 00       		.sleb128 0
 2226 0295 1C       		.byte	0x1c
 2227 0296 F7       		.byte	0xf7
 2228 0297 33       		.uleb128 0x33
 2229 0298 F7       		.byte	0xf7
 2230 0299 25       		.uleb128 0x25
 2231 029a 0C       		.byte	0xc
 2232 029b 1F85EB51 		.4byte	0x51eb851f
 2233 029f F7       		.byte	0xf7
 2234 02a0 25       		.uleb128 0x25
ARM GAS  C:\Users\winstona\AppData\Local\Temp\ccpY8M8W.s 			page 46


 2235 02a1 1E       		.byte	0x1e
 2236 02a2 08       		.byte	0x8
 2237 02a3 20       		.byte	0x20
 2238 02a4 F7       		.byte	0xf7
 2239 02a5 25       		.uleb128 0x25
 2240 02a6 25       		.byte	0x25
 2241 02a7 F7       		.byte	0xf7
 2242 02a8 2C       		.uleb128 0x2c
 2243 02a9 34       		.byte	0x34
 2244 02aa 26       		.byte	0x26
 2245 02ab 0A       		.byte	0xa
 2246 02ac 3D03     		.2byte	0x33d
 2247 02ae 70       		.byte	0x70
 2248 02af 00       		.sleb128 0
 2249 02b0 1C       		.byte	0x1c
 2250 02b1 4F       		.byte	0x4f
 2251 02b2 26       		.byte	0x26
 2252 02b3 1C       		.byte	0x1c
 2253 02b4 0A       		.byte	0xa
 2254 02b5 3D03     		.2byte	0x33d
 2255 02b7 70       		.byte	0x70
 2256 02b8 00       		.sleb128 0
 2257 02b9 1C       		.byte	0x1c
 2258 02ba 0A       		.byte	0xa
 2259 02bb 3D03     		.2byte	0x33d
 2260 02bd 70       		.byte	0x70
 2261 02be 00       		.sleb128 0
 2262 02bf 1C       		.byte	0x1c
 2263 02c0 F7       		.byte	0xf7
 2264 02c1 33       		.uleb128 0x33
 2265 02c2 F7       		.byte	0xf7
 2266 02c3 25       		.uleb128 0x25
 2267 02c4 0C       		.byte	0xc
 2268 02c5 1F85EB51 		.4byte	0x51eb851f
 2269 02c9 F7       		.byte	0xf7
 2270 02ca 25       		.uleb128 0x25
 2271 02cb 1E       		.byte	0x1e
 2272 02cc 08       		.byte	0x8
 2273 02cd 20       		.byte	0x20
 2274 02ce F7       		.byte	0xf7
 2275 02cf 25       		.uleb128 0x25
 2276 02d0 25       		.byte	0x25
 2277 02d1 F7       		.byte	0xf7
 2278 02d2 2C       		.uleb128 0x2c
 2279 02d3 34       		.byte	0x34
 2280 02d4 26       		.byte	0x26
 2281 02d5 0A       		.byte	0xa
 2282 02d6 3D03     		.2byte	0x33d
 2283 02d8 70       		.byte	0x70
 2284 02d9 00       		.sleb128 0
 2285 02da 1C       		.byte	0x1c
 2286 02db 4F       		.byte	0x4f
 2287 02dc 26       		.byte	0x26
 2288 02dd 1C       		.byte	0x1c
 2289 02de 76       		.byte	0x76
 2290 02df 00       		.sleb128 0
 2291 02e0 1E       		.byte	0x1e
ARM GAS  C:\Users\winstona\AppData\Local\Temp\ccpY8M8W.s 			page 47


 2292 02e1 1C       		.byte	0x1c
 2293 02e2 48       		.byte	0x48
 2294 02e3 2B       		.byte	0x2b
 2295 02e4 22       		.byte	0x22
 2296 02e5 4F       		.byte	0x4f
 2297 02e6 25       		.byte	0x25
 2298 02e7 22       		.byte	0x22
 2299 02e8 0A       		.byte	0xa
 2300 02e9 3D03     		.2byte	0x33d
 2301 02eb 70       		.byte	0x70
 2302 02ec 00       		.sleb128 0
 2303 02ed 1C       		.byte	0x1c
 2304 02ee 4F       		.byte	0x4f
 2305 02ef 26       		.byte	0x26
 2306 02f0 1C       		.byte	0x1c
 2307 02f1 0A       		.byte	0xa
 2308 02f2 3D03     		.2byte	0x33d
 2309 02f4 70       		.byte	0x70
 2310 02f5 00       		.sleb128 0
 2311 02f6 1C       		.byte	0x1c
 2312 02f7 0A       		.byte	0xa
 2313 02f8 3D03     		.2byte	0x33d
 2314 02fa 70       		.byte	0x70
 2315 02fb 00       		.sleb128 0
 2316 02fc 1C       		.byte	0x1c
 2317 02fd F7       		.byte	0xf7
 2318 02fe 33       		.uleb128 0x33
 2319 02ff F7       		.byte	0xf7
 2320 0300 25       		.uleb128 0x25
 2321 0301 0C       		.byte	0xc
 2322 0302 1F85EB51 		.4byte	0x51eb851f
 2323 0306 F7       		.byte	0xf7
 2324 0307 25       		.uleb128 0x25
 2325 0308 1E       		.byte	0x1e
 2326 0309 08       		.byte	0x8
 2327 030a 20       		.byte	0x20
 2328 030b F7       		.byte	0xf7
 2329 030c 25       		.uleb128 0x25
 2330 030d 25       		.byte	0x25
 2331 030e F7       		.byte	0xf7
 2332 030f 2C       		.uleb128 0x2c
 2333 0310 34       		.byte	0x34
 2334 0311 26       		.byte	0x26
 2335 0312 0A       		.byte	0xa
 2336 0313 3D03     		.2byte	0x33d
 2337 0315 70       		.byte	0x70
 2338 0316 00       		.sleb128 0
 2339 0317 1C       		.byte	0x1c
 2340 0318 4F       		.byte	0x4f
 2341 0319 26       		.byte	0x26
 2342 031a 1C       		.byte	0x1c
 2343 031b 76       		.byte	0x76
 2344 031c 00       		.sleb128 0
 2345 031d 1E       		.byte	0x1e
 2346 031e 1C       		.byte	0x1c
 2347 031f 48       		.byte	0x48
 2348 0320 2B       		.byte	0x2b
ARM GAS  C:\Users\winstona\AppData\Local\Temp\ccpY8M8W.s 			page 48


 2349 0321 22       		.byte	0x22
 2350 0322 31       		.byte	0x31
 2351 0323 26       		.byte	0x26
 2352 0324 9F       		.byte	0x9f
 2353 0325 E4000000 		.4byte	.LVL52
 2354 0329 EC000000 		.4byte	.LVL53
 2355 032d 0100     		.2byte	0x1
 2356 032f 52       		.byte	0x52
 2357 0330 00000000 		.4byte	0
 2358 0334 00000000 		.4byte	0
 2359              	.LLST7:
 2360 0338 F0000000 		.4byte	.LVL54
 2361 033c 00010000 		.4byte	.LVL55
 2362 0340 0100     		.2byte	0x1
 2363 0342 50       		.byte	0x50
 2364 0343 00000000 		.4byte	0
 2365 0347 00000000 		.4byte	0
 2366              		.section	.debug_aranges,"",%progbits
 2367 0000 3C000000 		.4byte	0x3c
 2368 0004 0200     		.2byte	0x2
 2369 0006 00000000 		.4byte	.Ldebug_info0
 2370 000a 04       		.byte	0x4
 2371 000b 00       		.byte	0
 2372 000c 0000     		.2byte	0
 2373 000e 0000     		.2byte	0
 2374 0010 00000000 		.4byte	.LFB64
 2375 0014 4C000000 		.4byte	.LFE64-.LFB64
 2376 0018 00000000 		.4byte	.LFB65
 2377 001c 48000000 		.4byte	.LFE65-.LFB65
 2378 0020 00000000 		.4byte	.LFB66
 2379 0024 4C000000 		.4byte	.LFE66-.LFB66
 2380 0028 00000000 		.4byte	.LFB67
 2381 002c C4000000 		.4byte	.LFE67-.LFB67
 2382 0030 00000000 		.4byte	.LFB68
 2383 0034 68010000 		.4byte	.LFE68-.LFB68
 2384 0038 00000000 		.4byte	0
 2385 003c 00000000 		.4byte	0
 2386              		.section	.debug_ranges,"",%progbits
 2387              	.Ldebug_ranges0:
 2388 0000 00000000 		.4byte	.LFB64
 2389 0004 4C000000 		.4byte	.LFE64
 2390 0008 00000000 		.4byte	.LFB65
 2391 000c 48000000 		.4byte	.LFE65
 2392 0010 00000000 		.4byte	.LFB66
 2393 0014 4C000000 		.4byte	.LFE66
 2394 0018 00000000 		.4byte	.LFB67
 2395 001c C4000000 		.4byte	.LFE67
 2396 0020 00000000 		.4byte	.LFB68
 2397 0024 68010000 		.4byte	.LFE68
 2398 0028 00000000 		.4byte	0
 2399 002c 00000000 		.4byte	0
 2400              		.section	.debug_line,"",%progbits
 2401              	.Ldebug_line0:
 2402 0000 B1020000 		.section	.debug_str,"MS",%progbits,1
 2402      0200EA01 
 2402      00000201 
 2402      FB0E0D00 
ARM GAS  C:\Users\winstona\AppData\Local\Temp\ccpY8M8W.s 			page 49


 2402      01010101 
 2403              	.LASF43:
 2404 0000 62756666 		.ascii	"bufferPosition\000"
 2404      6572506F 
 2404      73697469 
 2404      6F6E00
 2405              	.LASF65:
 2406 000f 52697369 		.ascii	"RisingEdgeISR_StartEx\000"
 2406      6E674564 
 2406      67654953 
 2406      525F5374 
 2406      61727445 
 2407              	.LASF26:
 2408 0025 52656365 		.ascii	"ReceiveInterruptHandler\000"
 2408      69766549 
 2408      6E746572 
 2408      72757074 
 2408      48616E64 
 2409              	.LASF4:
 2410 003d 73686F72 		.ascii	"short int\000"
 2410      7420696E 
 2410      7400
 2411              	.LASF21:
 2412 0047 73697A65 		.ascii	"sizetype\000"
 2412      74797065 
 2412      00
 2413              	.LASF35:
 2414 0050 6E656172 		.ascii	"nearestNumSymbols\000"
 2414      6573744E 
 2414      756D5379 
 2414      6D626F6C 
 2414      7300
 2415              	.LASF72:
 2416 0062 6D61696E 		.ascii	"main\000"
 2416      00
 2417              	.LASF6:
 2418 0067 5F5F7569 		.ascii	"__uint16_t\000"
 2418      6E743136 
 2418      5F7400
 2419              	.LASF68:
 2420 0072 55534255 		.ascii	"USBUART_Start\000"
 2420      4152545F 
 2420      53746172 
 2420      7400
 2421              	.LASF46:
 2422 0080 64617461 		.ascii	"dataSize\000"
 2422      53697A65 
 2422      00
 2423              	.LASF53:
 2424 0089 42555359 		.ascii	"BUSY_Write\000"
 2424      5F577269 
 2424      746500
 2425              	.LASF12:
 2426 0094 75696E74 		.ascii	"uint8_t\000"
 2426      385F7400 
 2427              	.LASF15:
 2428 009c 75696E74 		.ascii	"uint8\000"
ARM GAS  C:\Users\winstona\AppData\Local\Temp\ccpY8M8W.s 			page 50


 2428      3800
 2429              	.LASF24:
 2430 00a2 49444C45 		.ascii	"IDLE\000"
 2430      00
 2431              	.LASF42:
 2432 00a7 63757272 		.ascii	"currentDataCharacter\000"
 2432      656E7444 
 2432      61746143 
 2432      68617261 
 2432      63746572 
 2433              	.LASF16:
 2434 00bc 666C6F61 		.ascii	"float\000"
 2434      7400
 2435              	.LASF11:
 2436 00c2 6C6F6E67 		.ascii	"long long int\000"
 2436      206C6F6E 
 2436      6720696E 
 2436      7400
 2437              	.LASF25:
 2438 00d0 53746174 		.ascii	"State\000"
 2438      6500
 2439              	.LASF41:
 2440 00d6 6C6F6769 		.ascii	"logicLevel\000"
 2440      634C6576 
 2440      656C00
 2441              	.LASF29:
 2442 00e1 5472616E 		.ascii	"TransmitInterruptHandler\000"
 2442      736D6974 
 2442      496E7465 
 2442      72727570 
 2442      7448616E 
 2443              	.LASF9:
 2444 00fa 6C6F6E67 		.ascii	"long int\000"
 2444      20696E74 
 2444      00
 2445              	.LASF38:
 2446 0103 55534255 		.ascii	"USBUART_device\000"
 2446      4152545F 
 2446      64657669 
 2446      636500
 2447              	.LASF63:
 2448 0112 54696D65 		.ascii	"TimerRX_ReadCapture\000"
 2448      7252585F 
 2448      52656164 
 2448      43617074 
 2448      75726500 
 2449              	.LASF5:
 2450 0126 5F5F7569 		.ascii	"__uint8_t\000"
 2450      6E74385F 
 2450      7400
 2451              	.LASF28:
 2452 0130 46616C6C 		.ascii	"FallingEdgeInterruptHandler\000"
 2452      696E6745 
 2452      64676549 
 2452      6E746572 
 2452      72757074 
 2453              	.LASF23:
ARM GAS  C:\Users\winstona\AppData\Local\Temp\ccpY8M8W.s 			page 51


 2454 014c 434F4C4C 		.ascii	"COLLISION\000"
 2454      4953494F 
 2454      4E00
 2455              	.LASF22:
 2456 0156 42555359 		.ascii	"BUSY\000"
 2456      00
 2457              	.LASF20:
 2458 015b 6C6F6E67 		.ascii	"long double\000"
 2458      20646F75 
 2458      626C6500 
 2459              	.LASF49:
 2460 0167 72784269 		.ascii	"rxBit\000"
 2460      7400
 2461              	.LASF61:
 2462 016d 43794465 		.ascii	"CyDelayUs\000"
 2462      6C617955 
 2462      7300
 2463              	.LASF3:
 2464 0177 756E7369 		.ascii	"unsigned char\000"
 2464      676E6564 
 2464      20636861 
 2464      7200
 2465              	.LASF40:
 2466 0185 73797374 		.ascii	"systemState\000"
 2466      656D5374 
 2466      61746500 
 2467              	.LASF34:
 2468 0191 73796D62 		.ascii	"symbolClkCycles\000"
 2468      6F6C436C 
 2468      6B437963 
 2468      6C657300 
 2469              	.LASF2:
 2470 01a1 7369676E 		.ascii	"signed char\000"
 2470      65642063 
 2470      68617200 
 2471              	.LASF0:
 2472 01ad 6C6F6E67 		.ascii	"long long unsigned int\000"
 2472      206C6F6E 
 2472      6720756E 
 2472      7369676E 
 2472      65642069 
 2473              	.LASF71:
 2474 01c4 433A5C55 		.ascii	"C:\\Users\\winstona\\Documents\\School Documents\\N"
 2474      73657273 
 2474      5C77696E 
 2474      73746F6E 
 2474      615C446F 
 2475 01f2 6574776F 		.ascii	"etworking I\\ce4950lab1\\NetworkingProject.cydsn\000"
 2475      726B696E 
 2475      6720495C 
 2475      63653439 
 2475      35306C61 
 2476              	.LASF1:
 2477 0221 756E7369 		.ascii	"unsigned int\000"
 2477      676E6564 
 2477      20696E74 
 2477      00
ARM GAS  C:\Users\winstona\AppData\Local\Temp\ccpY8M8W.s 			page 52


 2478              	.LASF13:
 2479 022e 75696E74 		.ascii	"uint16_t\000"
 2479      31365F74 
 2479      00
 2480              	.LASF47:
 2481 0237 73796D62 		.ascii	"symbolPosition\000"
 2481      6F6C506F 
 2481      73697469 
 2481      6F6E00
 2482              	.LASF64:
 2483 0246 54696D65 		.ascii	"TimerRX_ClearFIFO\000"
 2483      7252585F 
 2483      436C6561 
 2483      72464946 
 2483      4F00
 2484              	.LASF32:
 2485 0258 696E7075 		.ascii	"inputCaptureTime\000"
 2485      74436170 
 2485      74757265 
 2485      54696D65 
 2485      00
 2486              	.LASF67:
 2487 0269 52656365 		.ascii	"ReceiveISR_StartEx\000"
 2487      69766549 
 2487      53525F53 
 2487      74617274 
 2487      457800
 2488              	.LASF7:
 2489 027c 73686F72 		.ascii	"short unsigned int\000"
 2489      7420756E 
 2489      7369676E 
 2489      65642069 
 2489      6E7400
 2490              	.LASF33:
 2491 028f 74696D65 		.ascii	"timeClk\000"
 2491      436C6B00 
 2492              	.LASF18:
 2493 0297 63686172 		.ascii	"char\000"
 2493      00
 2494              	.LASF37:
 2495 029c 5F426F6F 		.ascii	"_Bool\000"
 2495      6C00
 2496              	.LASF14:
 2497 02a2 696E7433 		.ascii	"int32_t\000"
 2497      325F7400 
 2498              	.LASF52:
 2499 02aa 49444C45 		.ascii	"IDLE_Write\000"
 2499      5F577269 
 2499      746500
 2500              	.LASF56:
 2501 02b5 54696D65 		.ascii	"TimerRX_WritePeriod\000"
 2501      7252585F 
 2501      57726974 
 2501      65506572 
 2501      696F6400 
 2502              	.LASF62:
 2503 02c9 55534255 		.ascii	"USBUART_PutChar\000"
ARM GAS  C:\Users\winstona\AppData\Local\Temp\ccpY8M8W.s 			page 53


 2503      4152545F 
 2503      50757443 
 2503      68617200 
 2504              	.LASF45:
 2505 02d9 64617461 		.ascii	"data\000"
 2505      00
 2506              	.LASF66:
 2507 02de 46616C6C 		.ascii	"FallingEdgeISR_StartEx\000"
 2507      696E6745 
 2507      64676549 
 2507      53525F53 
 2507      74617274 
 2508              	.LASF44:
 2509 02f5 62756666 		.ascii	"buffer\000"
 2509      657200
 2510              	.LASF59:
 2511 02fc 46616C6C 		.ascii	"FallingEdgeISR_ClearPending\000"
 2511      696E6745 
 2511      64676549 
 2511      53525F43 
 2511      6C656172 
 2512              	.LASF51:
 2513 0318 434F4C4C 		.ascii	"COLLISION_Write\000"
 2513      4953494F 
 2513      4E5F5772 
 2513      69746500 
 2514              	.LASF70:
 2515 0328 6D61696E 		.ascii	"main.c\000"
 2515      2E6300
 2516              	.LASF19:
 2517 032f 72656738 		.ascii	"reg8\000"
 2517      00
 2518              	.LASF10:
 2519 0334 6C6F6E67 		.ascii	"long unsigned int\000"
 2519      20756E73 
 2519      69676E65 
 2519      6420696E 
 2519      7400
 2520              	.LASF17:
 2521 0346 646F7562 		.ascii	"double\000"
 2521      6C6500
 2522              	.LASF54:
 2523 034d 52697369 		.ascii	"RisingEdgeISR_ClearPending\000"
 2523      6E674564 
 2523      67654953 
 2523      525F436C 
 2523      65617250 
 2524              	.LASF39:
 2525 0368 49544D5F 		.ascii	"ITM_RxBuffer\000"
 2525      52784275 
 2525      66666572 
 2525      00
 2526              	.LASF48:
 2527 0375 636F756E 		.ascii	"count\000"
 2527      7400
 2528              	.LASF30:
 2529 037b 6C6F6361 		.ascii	"localState\000"
ARM GAS  C:\Users\winstona\AppData\Local\Temp\ccpY8M8W.s 			page 54


 2529      6C537461 
 2529      746500
 2530              	.LASF8:
 2531 0386 5F5F696E 		.ascii	"__int32_t\000"
 2531      7433325F 
 2531      7400
 2532              	.LASF60:
 2533 0390 5452414E 		.ascii	"TRANSMIT_Write\000"
 2533      534D4954 
 2533      5F577269 
 2533      746500
 2534              	.LASF31:
 2535 039f 72697369 		.ascii	"risingEdge\000"
 2535      6E674564 
 2535      676500
 2536              	.LASF58:
 2537 03aa 54696D65 		.ascii	"TimerRX_Start\000"
 2537      7252585F 
 2537      53746172 
 2537      7400
 2538              	.LASF57:
 2539 03b8 54696D65 		.ascii	"TimerRX_WriteCounter\000"
 2539      7252585F 
 2539      57726974 
 2539      65436F75 
 2539      6E746572 
 2540              	.LASF50:
 2541 03cd 63757272 		.ascii	"currRxChar\000"
 2541      52784368 
 2541      617200
 2542              	.LASF69:
 2543 03d8 474E5520 		.ascii	"GNU C11 5.4.1 20160609 (release) [ARM/embedded-5-br"
 2543      43313120 
 2543      352E342E 
 2543      31203230 
 2543      31363036 
 2544 040b 616E6368 		.ascii	"anch revision 237715] -mcpu=cortex-m3 -mthumb -g -O"
 2544      20726576 
 2544      6973696F 
 2544      6E203233 
 2544      37373135 
 2545 043e 67202D66 		.ascii	"g -ffunction-sections -ffat-lto-objects\000"
 2545      66756E63 
 2545      74696F6E 
 2545      2D736563 
 2545      74696F6E 
 2546              	.LASF36:
 2547 0466 62697473 		.ascii	"bitsToShift\000"
 2547      546F5368 
 2547      69667400 
 2548              	.LASF27:
 2549 0472 52697369 		.ascii	"RisingEdgeInterruptHandler\000"
 2549      6E674564 
 2549      6765496E 
 2549      74657272 
 2549      75707448 
 2550              	.LASF55:
ARM GAS  C:\Users\winstona\AppData\Local\Temp\ccpY8M8W.s 			page 55


 2551 048d 54696D65 		.ascii	"TimerRX_Stop\000"
 2551      7252585F 
 2551      53746F70 
 2551      00
 2552              		.ident	"GCC: (GNU Tools for ARM Embedded Processors) 5.4.1 20160609 (release) [ARM/embedded-5-bran
