ARM GAS  C:\Users\winstona\AppData\Local\Temp\ccXRDK8a.s 			page 1


   1              		.syntax unified
   2              		.cpu cortex-m3
   3              		.fpu softvfp
   4              		.eabi_attribute 20, 1
   5              		.eabi_attribute 21, 1
   6              		.eabi_attribute 23, 3
   7              		.eabi_attribute 24, 1
   8              		.eabi_attribute 25, 1
   9              		.eabi_attribute 26, 1
  10              		.eabi_attribute 30, 1
  11              		.eabi_attribute 34, 1
  12              		.eabi_attribute 18, 4
  13              		.thumb
  14              		.syntax unified
  15              		.file	"main.c"
  16              		.text
  17              	.Ltext0:
  18              		.cfi_sections	.debug_frame
  19              		.section	.text.ReceiveInterruptHandler,"ax",%progbits
  20              		.align	2
  21              		.global	ReceiveInterruptHandler
  22              		.thumb
  23              		.thumb_func
  24              		.type	ReceiveInterruptHandler, %function
  25              	ReceiveInterruptHandler:
  26              	.LFB64:
  27              		.file 1 "main.c"
   1:main.c        **** /* ========================================
   2:main.c        ****  * FILENAME: main.c
   3:main.c        ****  * AUTHORS: Tyler Wells, Andy Winston, 
   4:main.c        ****             Kamith Mirissage
   5:main.c        ****  * DATE: 11 DEC 2017
   6:main.c        ****  * PROVIDES:
   7:main.c        ****  * - A PSOC implementation of a system 
   8:main.c        ****  *   that fucntions as a message-exchange 
   9:main.c        ****  *   on CSMA/CD bus using unipolar return
  10:main.c        ****  *   to zero (RZ) line coding 
  11:main.c        ****  * - State machine with  channel monitor
  12:main.c        ****  *   implementation (BUSY/IDLE/COLLISION)
  13:main.c        ****  * - Software pushbutton debouncing used 
  14:main.c        ****  * - LED to signal different states
  15:main.c        ****  * - Interrupt handling for rising and 
  16:main.c        ****   *  edge triggers of a timer
  17:main.c        ****  * ========================================
  18:main.c        **** */
  19:main.c        **** 
  20:main.c        **** #include "project.h"
  21:main.c        **** #include <stdlib.h>
  22:main.c        **** #include <stdbool.h>
  23:main.c        **** #include "stdio.h"
  24:main.c        **** 
  25:main.c        **** #define COLLISION_PERIOD                   52
  26:main.c        **** #define COLLISION_COUNTER                  51
  27:main.c        **** #define IDLE_PERIOD                        830
  28:main.c        **** #define IDLE_COUNTER                       829
  29:main.c        **** 
  30:main.c        **** #define RX_BUFFER_SIZE                     32
ARM GAS  C:\Users\winstona\AppData\Local\Temp\ccXRDK8a.s 			page 2


  31:main.c        **** 
  32:main.c        **** #define NULL_PAD                           1
  33:main.c        **** 
  34:main.c        **** #define MAX_RX_HIGH_TIME_CLK               52
  35:main.c        **** #define EXPECTED_SYMBOL_TIME_CLK           50
  36:main.c        **** #define MIN_RX_HIGH_TIME_CLK               48
  37:main.c        **** 
  38:main.c        **** #define NO_BIT                             8
  39:main.c        **** #define START_BIT                          7
  40:main.c        **** 
  41:main.c        **** 
  42:main.c        **** //States include: 
  43:main.c        **** //Busy - signals that the channel monitor is busy
  44:main.c        **** //       and in either line high or line low 
  45:main.c        **** //Collision - collision detected, line high
  46:main.c        **** //Idle - initialized state looking for rising
  47:main.c        **** //       edge to occur
  48:main.c        **** typedef enum { BUSY, COLLISION, IDLE } State;
  49:main.c        **** State systemState;
  50:main.c        **** 
  51:main.c        **** _Bool logicLevel = 0;
  52:main.c        **** char currentDataCharacter; //current char
  53:main.c        **** int bufferPosition = 0; //serial_pos
  54:main.c        **** unsigned char buffer[500]; //serial buffer
  55:main.c        **** 
  56:main.c        **** // data converted to non-terminated string showing 1s and 0s
  57:main.c        **** unsigned char data[16];
  58:main.c        **** 
  59:main.c        **** int dataSize; //data size
  60:main.c        **** 
  61:main.c        **** // Symbol position in unipolar RZ signal. There are 16 symbols, 2 per bit.
  62:main.c        **** int symbolPosition = 0;
  63:main.c        **** 
  64:main.c        **** int count; //dataConvertedReadOutCount
  65:main.c        **** 
  66:main.c        **** // bit pos in transmitted character (0 is MSB, 6 is LSB, excludes start bit)
  67:main.c        **** int idx = 0;
  68:main.c        **** 
  69:main.c        **** /******************************************************
  70:main.c        **** Receiving character logic variables
  71:main.c        **** ******************************************************/
  72:main.c        **** //Which RX bit occurred during last HI period. 8 if no bit received yet.
  73:main.c        **** uint8_t rxBit = 8;
  74:main.c        **** // Contains status of most recent capture
  75:main.c        **** typedef enum {DATA_RISING, DATA_FALLING, DATA_NONE, DATA_ERROR} EdgeStatus;
  76:main.c        **** EdgeStatus edgeDataStatus = DATA_NONE;
  77:main.c        **** uint16_t lastCapture; // Contains most recent capture
  78:main.c        **** // Buffer for receiving text.
  79:main.c        **** // TODO Adjust size of buffer. See if buffer is even necessary.
  80:main.c        **** //char rxBuffer[RX_BUFFER_SIZE + NULL_PAD];
  81:main.c        **** //char *rxBufferPos; // Current char position.
  82:main.c        **** char currRxChar;
  83:main.c        **** bool timerWrapped;
  84:main.c        ****     
  85:main.c        ****     
  86:main.c        **** /*******************************************************************************
  87:main.c        **** * Define Interrupt service routine and allocate an vector to the Interrupt
ARM GAS  C:\Users\winstona\AppData\Local\Temp\ccXRDK8a.s 			page 3


  88:main.c        **** ********************************************************************************/
  89:main.c        **** 
  90:main.c        ****  /**********************************************************
  91:main.c        ****  * function name: ReceiveInterruptHandler
  92:main.c        ****  * operation: Handles interrupt timer if the timer expires
  93:main.c        ****  *            indicates an idle condition or colllision
  94:main.c        ****  *            reads the logic levon the input pin/signal
  95:main.c        ****  *            high -> collision set
  96:main.c        ****  *            low -> idle set
  97:main.c        ****  * inputs: none
  98:main.c        ****  * returns: none
  99:main.c        ****  * implemented: 14 Dec 2017
 100:main.c        ****  * edited:
 101:main.c        ****  *********************************************************/ 
 102:main.c        **** CY_ISR(ReceiveInterruptHandler)
 103:main.c        **** {
  28              		.loc 1 103 0
  29              		.cfi_startproc
  30              		@ args = 0, pretend = 0, frame = 0
  31              		@ frame_needed = 0, uses_anonymous_args = 0
  32 0000 08B5     		push	{r3, lr}
  33              		.cfi_def_cfa_offset 8
  34              		.cfi_offset 3, -8
  35              		.cfi_offset 14, -4
 104:main.c        ****    	TimerRX_STATUS; 
  36              		.loc 1 104 0
  37 0002 104B     		ldr	r3, .L5
  38 0004 1B78     		ldrb	r3, [r3]	@ zero_extendqisi2
 105:main.c        ****     if (logicLevel) {
  39              		.loc 1 105 0
  40 0006 104B     		ldr	r3, .L5+4
  41 0008 1B78     		ldrb	r3, [r3]	@ zero_extendqisi2
  42 000a 5BB1     		cbz	r3, .L2
 106:main.c        ****         systemState = COLLISION;
  43              		.loc 1 106 0
  44 000c 0120     		movs	r0, #1
  45 000e 0F4B     		ldr	r3, .L5+8
  46 0010 1870     		strb	r0, [r3]
 107:main.c        ****         COLLISION_Write(1);
  47              		.loc 1 107 0
  48 0012 FFF7FEFF 		bl	COLLISION_Write
  49              	.LVL0:
 108:main.c        ****         IDLE_Write(0);
  50              		.loc 1 108 0
  51 0016 0020     		movs	r0, #0
  52 0018 FFF7FEFF 		bl	IDLE_Write
  53              	.LVL1:
 109:main.c        ****         BUSY_Write(0);
  54              		.loc 1 109 0
  55 001c 0020     		movs	r0, #0
  56 001e FFF7FEFF 		bl	BUSY_Write
  57              	.LVL2:
  58 0022 0BE0     		b	.L3
  59              	.L2:
 110:main.c        ****     } else {
 111:main.c        ****         systemState = IDLE;
  60              		.loc 1 111 0
ARM GAS  C:\Users\winstona\AppData\Local\Temp\ccXRDK8a.s 			page 4


  61 0024 0222     		movs	r2, #2
  62 0026 094B     		ldr	r3, .L5+8
  63 0028 1A70     		strb	r2, [r3]
 112:main.c        ****         COLLISION_Write(0);
  64              		.loc 1 112 0
  65 002a 0020     		movs	r0, #0
  66 002c FFF7FEFF 		bl	COLLISION_Write
  67              	.LVL3:
 113:main.c        ****         IDLE_Write(1);
  68              		.loc 1 113 0
  69 0030 0120     		movs	r0, #1
  70 0032 FFF7FEFF 		bl	IDLE_Write
  71              	.LVL4:
 114:main.c        ****         BUSY_Write(0);
  72              		.loc 1 114 0
  73 0036 0020     		movs	r0, #0
  74 0038 FFF7FEFF 		bl	BUSY_Write
  75              	.LVL5:
  76              	.L3:
 115:main.c        ****     }
 116:main.c        ****     timerWrapped = true;
  77              		.loc 1 116 0
  78 003c 0122     		movs	r2, #1
  79 003e 044B     		ldr	r3, .L5+12
  80 0040 1A70     		strb	r2, [r3]
  81 0042 08BD     		pop	{r3, pc}
  82              	.L6:
  83              		.align	2
  84              	.L5:
  85 0044 65650040 		.word	1073767781
  86 0048 00000000 		.word	.LANCHOR0
  87 004c 00000000 		.word	systemState
  88 0050 00000000 		.word	timerWrapped
  89              		.cfi_endproc
  90              	.LFE64:
  91              		.size	ReceiveInterruptHandler, .-ReceiveInterruptHandler
  92              		.section	.text.RisingEdgeInterruptHandler,"ax",%progbits
  93              		.align	2
  94              		.global	RisingEdgeInterruptHandler
  95              		.thumb
  96              		.thumb_func
  97              		.type	RisingEdgeInterruptHandler, %function
  98              	RisingEdgeInterruptHandler:
  99              	.LFB65:
 117:main.c        **** }
 118:main.c        **** 
 119:main.c        **** 
 120:main.c        ****  /**********************************************************
 121:main.c        ****  * function name: RisingEdgeInterruptHandler
 122:main.c        ****  * operation: Handles interrupt for when a rising edge on 
 123:main.c        ****  *            the timer occurs. Triggers system to look for
 124:main.c        ****  *            falling edge (1 -> 0). Schedules a timer
 125:main.c        ****  *            interupt to occur in .6ms and sets state to 
 126:main.c        ****  *            busy
 127:main.c        ****  * inputs: none
 128:main.c        ****  * returns: none
 129:main.c        ****  * implemented: 14 Dec 2017
ARM GAS  C:\Users\winstona\AppData\Local\Temp\ccXRDK8a.s 			page 5


 130:main.c        ****  * edited:
 131:main.c        ****  *********************************************************/ 
 132:main.c        **** CY_ISR(RisingEdgeInterruptHandler)
 133:main.c        **** {
 100              		.loc 1 133 0
 101              		.cfi_startproc
 102              		@ args = 0, pretend = 0, frame = 0
 103              		@ frame_needed = 0, uses_anonymous_args = 0
 134:main.c        ****     if ((!logicLevel)){
 104              		.loc 1 134 0
 105 0000 174B     		ldr	r3, .L12
 106 0002 1B78     		ldrb	r3, [r3]	@ zero_extendqisi2
 107 0004 5BBB     		cbnz	r3, .L11
 133:main.c        ****     if ((!logicLevel)){
 108              		.loc 1 133 0
 109 0006 10B5     		push	{r4, lr}
 110              		.cfi_def_cfa_offset 8
 111              		.cfi_offset 4, -8
 112              		.cfi_offset 14, -4
 135:main.c        ****         RisingEdgeISR_ClearPending();
 113              		.loc 1 135 0
 114 0008 FFF7FEFF 		bl	RisingEdgeISR_ClearPending
 115              	.LVL6:
 136:main.c        ****         TimerRX_Sleep();
 116              		.loc 1 136 0
 117 000c FFF7FEFF 		bl	TimerRX_Sleep
 118              	.LVL7:
 137:main.c        ****         lastCapture = TimerRX_ReadCounter();
 119              		.loc 1 137 0
 120 0010 FFF7FEFF 		bl	TimerRX_ReadCounter
 121              	.LVL8:
 122 0014 134B     		ldr	r3, .L12+4
 123 0016 1880     		strh	r0, [r3]	@ movhi
 138:main.c        ****         TimerRX_WritePeriod(COLLISION_PERIOD);
 124              		.loc 1 138 0
 125 0018 3420     		movs	r0, #52
 126 001a FFF7FEFF 		bl	TimerRX_WritePeriod
 127              	.LVL9:
 139:main.c        ****         TimerRX_WriteCounter(COLLISION_COUNTER);
 128              		.loc 1 139 0
 129 001e 3320     		movs	r0, #51
 130 0020 FFF7FEFF 		bl	TimerRX_WriteCounter
 131              	.LVL10:
 140:main.c        ****         TimerRX_Start();
 132              		.loc 1 140 0
 133 0024 FFF7FEFF 		bl	TimerRX_Start
 134              	.LVL11:
 141:main.c        ****         logicLevel = 1;
 135              		.loc 1 141 0
 136 0028 0120     		movs	r0, #1
 137 002a 0D4B     		ldr	r3, .L12
 138 002c 1870     		strb	r0, [r3]
 142:main.c        ****         systemState = BUSY;
 139              		.loc 1 142 0
 140 002e 0024     		movs	r4, #0
 141 0030 0D4B     		ldr	r3, .L12+8
 142 0032 1C70     		strb	r4, [r3]
ARM GAS  C:\Users\winstona\AppData\Local\Temp\ccXRDK8a.s 			page 6


 143:main.c        ****         BUSY_Write(1);
 143              		.loc 1 143 0
 144 0034 FFF7FEFF 		bl	BUSY_Write
 145              	.LVL12:
 144:main.c        ****         COLLISION_Write(0);
 146              		.loc 1 144 0
 147 0038 2046     		mov	r0, r4
 148 003a FFF7FEFF 		bl	COLLISION_Write
 149              	.LVL13:
 145:main.c        ****         IDLE_Write(0);
 150              		.loc 1 145 0
 151 003e 2046     		mov	r0, r4
 152 0040 FFF7FEFF 		bl	IDLE_Write
 153              	.LVL14:
 146:main.c        ****         timerWrapped = false;
 154              		.loc 1 146 0
 155 0044 094B     		ldr	r3, .L12+12
 156 0046 1C70     		strb	r4, [r3]
 147:main.c        ****         if (edgeDataStatus == DATA_NONE) {
 157              		.loc 1 147 0
 158 0048 094B     		ldr	r3, .L12+16
 159 004a 1B78     		ldrb	r3, [r3]	@ zero_extendqisi2
 160 004c 022B     		cmp	r3, #2
 161 004e 02D1     		bne	.L9
 148:main.c        ****             edgeDataStatus = DATA_RISING;
 162              		.loc 1 148 0
 163 0050 074B     		ldr	r3, .L12+16
 164 0052 1C70     		strb	r4, [r3]
 165 0054 10BD     		pop	{r4, pc}
 166              	.L9:
 149:main.c        ****         } else {
 150:main.c        ****             edgeDataStatus = DATA_ERROR;
 167              		.loc 1 150 0
 168 0056 0322     		movs	r2, #3
 169 0058 054B     		ldr	r3, .L12+16
 170 005a 1A70     		strb	r2, [r3]
 171 005c 10BD     		pop	{r4, pc}
 172              	.L11:
 173              		.cfi_def_cfa_offset 0
 174              		.cfi_restore 4
 175              		.cfi_restore 14
 176 005e 7047     		bx	lr
 177              	.L13:
 178              		.align	2
 179              	.L12:
 180 0060 00000000 		.word	.LANCHOR0
 181 0064 00000000 		.word	lastCapture
 182 0068 00000000 		.word	systemState
 183 006c 00000000 		.word	timerWrapped
 184 0070 00000000 		.word	.LANCHOR1
 185              		.cfi_endproc
 186              	.LFE65:
 187              		.size	RisingEdgeInterruptHandler, .-RisingEdgeInterruptHandler
 188              		.section	.text.FallingEdgeInterruptHandler,"ax",%progbits
 189              		.align	2
 190              		.global	FallingEdgeInterruptHandler
 191              		.thumb
ARM GAS  C:\Users\winstona\AppData\Local\Temp\ccXRDK8a.s 			page 7


 192              		.thumb_func
 193              		.type	FallingEdgeInterruptHandler, %function
 194              	FallingEdgeInterruptHandler:
 195              	.LFB66:
 151:main.c        ****         }
 152:main.c        ****     }
 153:main.c        **** }
 154:main.c        ****  
 155:main.c        **** 
 156:main.c        ****  /**********************************************************
 157:main.c        ****  * function name: FallingEdgeInterruptHandler
 158:main.c        ****  * operation: Handles interrupt for when a falling edge on 
 159:main.c        ****  *            the timer occurs. Triggers system to look for
 160:main.c        ****  *            rising edge (0 -> 1). Schedules a timer
 161:main.c        ****  *            interupt to occur in 7.7 ms and sets state to 
 162:main.c        ****  *            busy
 163:main.c        ****  * inputs: none
 164:main.c        ****  * returns: none
 165:main.c        ****  * implemented: 14 Dec 2017
 166:main.c        ****  * edited:
 167:main.c        ****  *********************************************************/ 
 168:main.c        **** CY_ISR(FallingEdgeInterruptHandler)
 169:main.c        **** {
 196              		.loc 1 169 0
 197              		.cfi_startproc
 198              		@ args = 0, pretend = 0, frame = 0
 199              		@ frame_needed = 0, uses_anonymous_args = 0
 170:main.c        ****     if (logicLevel) {
 200              		.loc 1 170 0
 201 0000 194B     		ldr	r3, .L19
 202 0002 1B78     		ldrb	r3, [r3]	@ zero_extendqisi2
 203 0004 73B3     		cbz	r3, .L18
 169:main.c        ****     if (logicLevel) {
 204              		.loc 1 169 0
 205 0006 10B5     		push	{r4, lr}
 206              		.cfi_def_cfa_offset 8
 207              		.cfi_offset 4, -8
 208              		.cfi_offset 14, -4
 171:main.c        ****         FallingEdgeISR_ClearPending();
 209              		.loc 1 171 0
 210 0008 FFF7FEFF 		bl	FallingEdgeISR_ClearPending
 211              	.LVL15:
 172:main.c        ****         TimerRX_Sleep();
 212              		.loc 1 172 0
 213 000c FFF7FEFF 		bl	TimerRX_Sleep
 214              	.LVL16:
 173:main.c        ****         lastCapture = TimerRX_ReadCounter();
 215              		.loc 1 173 0
 216 0010 FFF7FEFF 		bl	TimerRX_ReadCounter
 217              	.LVL17:
 218 0014 154B     		ldr	r3, .L19+4
 219 0016 1880     		strh	r0, [r3]	@ movhi
 174:main.c        ****         TimerRX_WritePeriod(IDLE_PERIOD);
 220              		.loc 1 174 0
 221 0018 40F23E30 		movw	r0, #830
 222 001c FFF7FEFF 		bl	TimerRX_WritePeriod
 223              	.LVL18:
ARM GAS  C:\Users\winstona\AppData\Local\Temp\ccXRDK8a.s 			page 8


 175:main.c        ****         TimerRX_WriteCounter(IDLE_COUNTER);
 224              		.loc 1 175 0
 225 0020 40F23D30 		movw	r0, #829
 226 0024 FFF7FEFF 		bl	TimerRX_WriteCounter
 227              	.LVL19:
 176:main.c        ****         TimerRX_Start();
 228              		.loc 1 176 0
 229 0028 FFF7FEFF 		bl	TimerRX_Start
 230              	.LVL20:
 177:main.c        ****         logicLevel = 0;
 231              		.loc 1 177 0
 232 002c 0024     		movs	r4, #0
 233 002e 0E4B     		ldr	r3, .L19
 234 0030 1C70     		strb	r4, [r3]
 178:main.c        ****         systemState = BUSY;
 235              		.loc 1 178 0
 236 0032 0F4B     		ldr	r3, .L19+8
 237 0034 1C70     		strb	r4, [r3]
 179:main.c        ****         BUSY_Write(1);
 238              		.loc 1 179 0
 239 0036 0120     		movs	r0, #1
 240 0038 FFF7FEFF 		bl	BUSY_Write
 241              	.LVL21:
 180:main.c        ****         COLLISION_Write(0);
 242              		.loc 1 180 0
 243 003c 2046     		mov	r0, r4
 244 003e FFF7FEFF 		bl	COLLISION_Write
 245              	.LVL22:
 181:main.c        ****         IDLE_Write(0);
 246              		.loc 1 181 0
 247 0042 2046     		mov	r0, r4
 248 0044 FFF7FEFF 		bl	IDLE_Write
 249              	.LVL23:
 182:main.c        ****         timerWrapped = false;
 250              		.loc 1 182 0
 251 0048 0A4B     		ldr	r3, .L19+12
 252 004a 1C70     		strb	r4, [r3]
 183:main.c        ****         if (edgeDataStatus == DATA_NONE) {
 253              		.loc 1 183 0
 254 004c 0A4B     		ldr	r3, .L19+16
 255 004e 1B78     		ldrb	r3, [r3]	@ zero_extendqisi2
 256 0050 022B     		cmp	r3, #2
 257 0052 03D1     		bne	.L16
 184:main.c        ****             edgeDataStatus = DATA_FALLING;
 258              		.loc 1 184 0
 259 0054 0122     		movs	r2, #1
 260 0056 084B     		ldr	r3, .L19+16
 261 0058 1A70     		strb	r2, [r3]
 262 005a 10BD     		pop	{r4, pc}
 263              	.L16:
 185:main.c        ****         } else {
 186:main.c        ****             edgeDataStatus = DATA_ERROR;
 264              		.loc 1 186 0
 265 005c 0322     		movs	r2, #3
 266 005e 064B     		ldr	r3, .L19+16
 267 0060 1A70     		strb	r2, [r3]
 268 0062 10BD     		pop	{r4, pc}
ARM GAS  C:\Users\winstona\AppData\Local\Temp\ccXRDK8a.s 			page 9


 269              	.L18:
 270              		.cfi_def_cfa_offset 0
 271              		.cfi_restore 4
 272              		.cfi_restore 14
 273 0064 7047     		bx	lr
 274              	.L20:
 275 0066 00BF     		.align	2
 276              	.L19:
 277 0068 00000000 		.word	.LANCHOR0
 278 006c 00000000 		.word	lastCapture
 279 0070 00000000 		.word	systemState
 280 0074 00000000 		.word	timerWrapped
 281 0078 00000000 		.word	.LANCHOR1
 282              		.cfi_endproc
 283              	.LFE66:
 284              		.size	FallingEdgeInterruptHandler, .-FallingEdgeInterruptHandler
 285              		.section	.text.TransmitInterruptHandler,"ax",%progbits
 286              		.align	2
 287              		.global	TransmitInterruptHandler
 288              		.thumb
 289              		.thumb_func
 290              		.type	TransmitInterruptHandler, %function
 291              	TransmitInterruptHandler:
 292              	.LFB67:
 187:main.c        ****         }
 188:main.c        ****     }
 189:main.c        **** }
 190:main.c        **** 
 191:main.c        **** 
 192:main.c        **** 
 193:main.c        **** 
 194:main.c        ****  /**********************************************************
 195:main.c        ****  * function name: TransmitInterruptHandler
 196:main.c        ****  * operation: Handles interrupt for transmition of data
 197:main.c        ****  * inputs: none
 198:main.c        ****  * returns: none
 199:main.c        ****  * implemented: 10 Jan 2018
 200:main.c        ****  * edited:
 201:main.c        ****  *********************************************************/
 202:main.c        **** CY_ISR(TransmitInterruptHandler)
 203:main.c        **** {
 293              		.loc 1 203 0
 294              		.cfi_startproc
 295              		@ args = 0, pretend = 0, frame = 0
 296              		@ frame_needed = 0, uses_anonymous_args = 0
 297 0000 08B5     		push	{r3, lr}
 298              		.cfi_def_cfa_offset 8
 299              		.cfi_offset 3, -8
 300              		.cfi_offset 14, -4
 204:main.c        ****     TimerTX_STATUS;
 301              		.loc 1 204 0
 302 0002 2A4B     		ldr	r3, .L29
 303 0004 1B78     		ldrb	r3, [r3]	@ zero_extendqisi2
 205:main.c        **** 	currentDataCharacter = buffer[bufferPosition];  
 304              		.loc 1 205 0
 305 0006 2A4B     		ldr	r3, .L29+4
 306 0008 5B68     		ldr	r3, [r3, #4]
ARM GAS  C:\Users\winstona\AppData\Local\Temp\ccXRDK8a.s 			page 10


 307 000a 2A4A     		ldr	r2, .L29+8
 308 000c D25C     		ldrb	r2, [r2, r3]	@ zero_extendqisi2
 309 000e 2A49     		ldr	r1, .L29+12
 310 0010 0A70     		strb	r2, [r1]
 206:main.c        **** 	if(bufferPosition < dataSize) { 
 311              		.loc 1 206 0
 312 0012 2A49     		ldr	r1, .L29+16
 313 0014 0968     		ldr	r1, [r1]
 314 0016 8B42     		cmp	r3, r1
 315 0018 47DA     		bge	.L21
 207:main.c        ****         // Always send 1 in first part of start bit.
 208:main.c        **** 	    if(symbolPosition == 0) {
 316              		.loc 1 208 0
 317 001a 254B     		ldr	r3, .L29+4
 318 001c 9B68     		ldr	r3, [r3, #8]
 319 001e 43B9     		cbnz	r3, .L23
 209:main.c        ****     		TRANSMIT_Write(1);
 320              		.loc 1 209 0
 321 0020 0120     		movs	r0, #1
 322 0022 FFF7FEFF 		bl	TRANSMIT_Write
 323              	.LVL24:
 210:main.c        ****     		data[symbolPosition] = '1';
 324              		.loc 1 210 0
 325 0026 224B     		ldr	r3, .L29+4
 326 0028 9B68     		ldr	r3, [r3, #8]
 327 002a 3121     		movs	r1, #49
 328 002c 244A     		ldr	r2, .L29+20
 329 002e D154     		strb	r1, [r2, r3]
 330 0030 28E0     		b	.L24
 331              	.L23:
 211:main.c        ****         // At second half of each bit, return to 0.
 212:main.c        ****     	} else if(symbolPosition % 2 != 0){
 332              		.loc 1 212 0
 333 0032 13F0010F 		tst	r3, #1
 334 0036 08D0     		beq	.L25
 213:main.c        ****     		TRANSMIT_Write(0);
 335              		.loc 1 213 0
 336 0038 0020     		movs	r0, #0
 337 003a FFF7FEFF 		bl	TRANSMIT_Write
 338              	.LVL25:
 214:main.c        ****     		data[symbolPosition] = '0';
 339              		.loc 1 214 0
 340 003e 1C4B     		ldr	r3, .L29+4
 341 0040 9B68     		ldr	r3, [r3, #8]
 342 0042 3021     		movs	r1, #48
 343 0044 1E4A     		ldr	r2, .L29+20
 344 0046 D154     		strb	r1, [r2, r3]
 345 0048 1CE0     		b	.L24
 346              	.L25:
 215:main.c        ****         // All other cases, high or low depending on bit
 216:main.c        ****     	} else {
 217:main.c        ****     		if(currentDataCharacter & (1 << (6 - idx))){
 347              		.loc 1 217 0
 348 004a 194B     		ldr	r3, .L29+4
 349 004c DB68     		ldr	r3, [r3, #12]
 350 004e C3F10603 		rsb	r3, r3, #6
 351 0052 1A41     		asrs	r2, r2, r3
ARM GAS  C:\Users\winstona\AppData\Local\Temp\ccXRDK8a.s 			page 11


 352 0054 12F0010F 		tst	r2, #1
 353 0058 08D0     		beq	.L26
 218:main.c        ****     			TRANSMIT_Write(1);
 354              		.loc 1 218 0
 355 005a 0120     		movs	r0, #1
 356 005c FFF7FEFF 		bl	TRANSMIT_Write
 357              	.LVL26:
 219:main.c        ****     			data[symbolPosition] = '1';
 358              		.loc 1 219 0
 359 0060 134B     		ldr	r3, .L29+4
 360 0062 9B68     		ldr	r3, [r3, #8]
 361 0064 3121     		movs	r1, #49
 362 0066 164A     		ldr	r2, .L29+20
 363 0068 D154     		strb	r1, [r2, r3]
 364 006a 07E0     		b	.L27
 365              	.L26:
 220:main.c        ****     		}else{
 221:main.c        ****     			TRANSMIT_Write(0);
 366              		.loc 1 221 0
 367 006c 0020     		movs	r0, #0
 368 006e FFF7FEFF 		bl	TRANSMIT_Write
 369              	.LVL27:
 222:main.c        ****     			data[symbolPosition] = '0';   
 370              		.loc 1 222 0
 371 0072 0F4B     		ldr	r3, .L29+4
 372 0074 9B68     		ldr	r3, [r3, #8]
 373 0076 3021     		movs	r1, #48
 374 0078 114A     		ldr	r2, .L29+20
 375 007a D154     		strb	r1, [r2, r3]
 376              	.L27:
 223:main.c        ****     		}
 224:main.c        ****     		++idx;
 377              		.loc 1 224 0
 378 007c 0C4A     		ldr	r2, .L29+4
 379 007e D368     		ldr	r3, [r2, #12]
 380 0080 0133     		adds	r3, r3, #1
 381 0082 D360     		str	r3, [r2, #12]
 382              	.L24:
 225:main.c        ****     	}
 226:main.c        ****         CyDelayUs(450);
 383              		.loc 1 226 0
 384 0084 4FF4E170 		mov	r0, #450
 385 0088 FFF7FEFF 		bl	CyDelayUs
 386              	.LVL28:
 227:main.c        ****         ++symbolPosition;
 387              		.loc 1 227 0
 388 008c 084A     		ldr	r2, .L29+4
 389 008e 9368     		ldr	r3, [r2, #8]
 390 0090 0133     		adds	r3, r3, #1
 391 0092 9360     		str	r3, [r2, #8]
 228:main.c        ****         if(symbolPosition >= 16) {
 392              		.loc 1 228 0
 393 0094 0F2B     		cmp	r3, #15
 394 0096 08DD     		ble	.L21
 229:main.c        ****     	    ++bufferPosition;
 395              		.loc 1 229 0
 396 0098 1346     		mov	r3, r2
ARM GAS  C:\Users\winstona\AppData\Local\Temp\ccXRDK8a.s 			page 12


 397 009a 5268     		ldr	r2, [r2, #4]
 398 009c 0132     		adds	r2, r2, #1
 399 009e 5A60     		str	r2, [r3, #4]
 230:main.c        ****     	    idx = 0;
 400              		.loc 1 230 0
 401 00a0 0020     		movs	r0, #0
 402 00a2 D860     		str	r0, [r3, #12]
 231:main.c        ****     	    symbolPosition = 0;
 403              		.loc 1 231 0
 404 00a4 9860     		str	r0, [r3, #8]
 232:main.c        ****             TRANSMIT_Write(0);
 405              		.loc 1 232 0
 406 00a6 FFF7FEFF 		bl	TRANSMIT_Write
 407              	.LVL29:
 408              	.L21:
 409 00aa 08BD     		pop	{r3, pc}
 410              	.L30:
 411              		.align	2
 412              	.L29:
 413 00ac 67650040 		.word	1073767783
 414 00b0 00000000 		.word	.LANCHOR0
 415 00b4 00000000 		.word	buffer
 416 00b8 00000000 		.word	currentDataCharacter
 417 00bc 00000000 		.word	dataSize
 418 00c0 00000000 		.word	data
 419              		.cfi_endproc
 420              	.LFE67:
 421              		.size	TransmitInterruptHandler, .-TransmitInterruptHandler
 422              		.section	.text.main,"ax",%progbits
 423              		.align	2
 424              		.global	main
 425              		.thumb
 426              		.thumb_func
 427              		.type	main, %function
 428              	main:
 429              	.LFB68:
 233:main.c        ****         }
 234:main.c        ****     }
 235:main.c        **** }
 236:main.c        **** 
 237:main.c        ****  /**********************************************************
 238:main.c        ****  * function name: main
 239:main.c        ****  * operation: Handles the main state machine diagram for the
 240:main.c        ****  *            system. Changes  states when needed and calls
 241:main.c        ****  *            appropriate interrupt routines when triggered.                
 242:main.c        ****  * inputs: none
 243:main.c        ****  * returns: none
 244:main.c        ****  * implemented: 14 Dec 2017
 245:main.c        ****  * edited:
 246:main.c        ****  *********************************************************/ 
 247:main.c        **** int main(void)
 248:main.c        **** {
 430              		.loc 1 248 0
 431              		.cfi_startproc
 432              		@ args = 0, pretend = 0, frame = 0
 433              		@ frame_needed = 0, uses_anonymous_args = 0
 434 0000 70B5     		push	{r4, r5, r6, lr}
ARM GAS  C:\Users\winstona\AppData\Local\Temp\ccXRDK8a.s 			page 13


 435              		.cfi_def_cfa_offset 16
 436              		.cfi_offset 4, -16
 437              		.cfi_offset 5, -12
 438              		.cfi_offset 6, -8
 439              		.cfi_offset 14, -4
 249:main.c        ****     //systemState = IDLE;
 250:main.c        ****     CyGlobalIntEnable;
 440              		.loc 1 250 0
 441              		.syntax unified
 442              	@ 250 "main.c" 1
 443 0002 62B6     		CPSIE   i
 444              	@ 0 "" 2
 251:main.c        ****     RisingEdgeISR_StartEx(RisingEdgeInterruptHandler);
 445              		.loc 1 251 0
 446              		.thumb
 447              		.syntax unified
 448 0004 6948     		ldr	r0, .L53
 449 0006 FFF7FEFF 		bl	RisingEdgeISR_StartEx
 450              	.LVL30:
 252:main.c        ****     FallingEdgeISR_StartEx(FallingEdgeInterruptHandler);
 451              		.loc 1 252 0
 452 000a 6948     		ldr	r0, .L53+4
 453 000c FFF7FEFF 		bl	FallingEdgeISR_StartEx
 454              	.LVL31:
 253:main.c        **** //    TimerTX_Start();
 254:main.c        **** //    TimerTX_WritePeriod(45);
 255:main.c        **** //    TimerTX_WriteCounter(44);
 256:main.c        ****     ReceiveISR_StartEx(ReceiveInterruptHandler);
 455              		.loc 1 256 0
 456 0010 6848     		ldr	r0, .L53+8
 457 0012 FFF7FEFF 		bl	ReceiveISR_StartEx
 458              	.LVL32:
 257:main.c        **** //    TransmitISR_StartEx(TransmitInterruptHandler);
 258:main.c        **** 
 259:main.c        ****     // rxBufferPos = rxBuffer;
 260:main.c        ****     USBUART_Start(USBUART_device, USBUART_5V_OPERATION);
 459              		.loc 1 260 0
 460 0016 684B     		ldr	r3, .L53+12
 461 0018 1878     		ldrb	r0, [r3]	@ zero_extendqisi2
 462 001a 0121     		movs	r1, #1
 463 001c FFF7FEFF 		bl	USBUART_Start
 464              	.LVL33:
 465              	.L32:
 261:main.c        ****     while (!USBUART_GetConfiguration()) {
 466              		.loc 1 261 0 discriminator 1
 467 0020 FFF7FEFF 		bl	USBUART_GetConfiguration
 468              	.LVL34:
 469 0024 0028     		cmp	r0, #0
 470 0026 FBD0     		beq	.L32
 262:main.c        ****     }
 263:main.c        ****     USBUART_CDC_Init();
 471              		.loc 1 263 0
 472 0028 FFF7FEFF 		bl	USBUART_CDC_Init
 473              	.LVL35:
 474              	.L33:
 264:main.c        ****     
 265:main.c        ****     while(!(USBUART_GetDTERate() == 57600));
ARM GAS  C:\Users\winstona\AppData\Local\Temp\ccXRDK8a.s 			page 14


 475              		.loc 1 265 0 discriminator 1
 476 002c FFF7FEFF 		bl	USBUART_GetDTERate
 477              	.LVL36:
 478 0030 B0F5614F 		cmp	r0, #57600
 479 0034 FAD1     		bne	.L33
 480              	.L34:
 266:main.c        **** 	
 267:main.c        **** 	//Host can send double SET_INTERFACE request, which sounds sub-optimal for us if we don't handle t
 268:main.c        **** 	while (!USBUART_IsConfigurationChanged());
 481              		.loc 1 268 0 discriminator 1
 482 0036 FFF7FEFF 		bl	USBUART_IsConfigurationChanged
 483              	.LVL37:
 484 003a 0028     		cmp	r0, #0
 485 003c FBD0     		beq	.L34
 486              	.L35:
 269:main.c        **** 	//re-initialize device
 270:main.c        **** 	while (!USBUART_GetConfiguration());
 487              		.loc 1 270 0 discriminator 1
 488 003e FFF7FEFF 		bl	USBUART_GetConfiguration
 489              	.LVL38:
 490 0042 0028     		cmp	r0, #0
 491 0044 FBD0     		beq	.L35
 271:main.c        **** 	//Enumeration is done, allow receieving data from host
 272:main.c        **** 	USBUART_CDC_Init();
 492              		.loc 1 272 0
 493 0046 FFF7FEFF 		bl	USBUART_CDC_Init
 494              	.LVL39:
 495              	.L36:
 273:main.c        ****     while(!USBUART_CDCIsReady());
 496              		.loc 1 273 0 discriminator 1
 497 004a FFF7FEFF 		bl	USBUART_CDCIsReady
 498              	.LVL40:
 499 004e 0028     		cmp	r0, #0
 500 0050 FBD0     		beq	.L36
 274:main.c        ****     USBUART_PutChar('!');
 501              		.loc 1 274 0
 502 0052 2120     		movs	r0, #33
 503 0054 FFF7FEFF 		bl	USBUART_PutChar
 504              	.LVL41:
 505              	.L37:
 506              	.LBB2:
 275:main.c        ****     
 276:main.c        ****     while (true) {
 277:main.c        ****         int uartConnected = 0;
 278:main.c        ****         if(USBUART_GetDTERate() == 57600){
 507              		.loc 1 278 0
 508 0058 FFF7FEFF 		bl	USBUART_GetDTERate
 509              	.LVL42:
 279:main.c        **** 			uartConnected = 1;
 280:main.c        **** 		}
 281:main.c        **** 	
 282:main.c        **** 		//Host can send double SET_INTERFACE request, which sounds sub-optimal for us if we don't handle 
 283:main.c        **** 		if (0 != USBUART_IsConfigurationChanged())
 510              		.loc 1 283 0
 511 005c FFF7FEFF 		bl	USBUART_IsConfigurationChanged
 512              	.LVL43:
 513 0060 20B1     		cbz	r0, .L39
ARM GAS  C:\Users\winstona\AppData\Local\Temp\ccXRDK8a.s 			page 15


 284:main.c        **** 		{
 285:main.c        **** 			//re-initialize device
 286:main.c        **** 			if (0 != USBUART_GetConfiguration())
 514              		.loc 1 286 0
 515 0062 FFF7FEFF 		bl	USBUART_GetConfiguration
 516              	.LVL44:
 517 0066 08B1     		cbz	r0, .L39
 287:main.c        **** 			{
 288:main.c        **** 				//Enumeration is done, allow receieving data from host
 289:main.c        **** 				USBUART_CDC_Init();
 518              		.loc 1 289 0
 519 0068 FFF7FEFF 		bl	USBUART_CDC_Init
 520              	.LVL45:
 521              	.L39:
 290:main.c        **** 			}
 291:main.c        **** 		}
 292:main.c        ****         while(!USBUART_CDCIsReady());
 522              		.loc 1 292 0 discriminator 1
 523 006c FFF7FEFF 		bl	USBUART_CDCIsReady
 524              	.LVL46:
 525 0070 0028     		cmp	r0, #0
 526 0072 FBD0     		beq	.L39
 293:main.c        ****         USBUART_PutString("Source Address: ");
 527              		.loc 1 293 0
 528 0074 5148     		ldr	r0, .L53+16
 529 0076 FFF7FEFF 		bl	USBUART_PutString
 530              	.LVL47:
 294:main.c        ****         State localState = systemState; // Save in case of preemption.
 531              		.loc 1 294 0
 532 007a 514B     		ldr	r3, .L53+20
 533 007c 1B78     		ldrb	r3, [r3]	@ zero_extendqisi2
 534              	.LVL48:
 295:main.c        ****         // TODO Make this code conditional so it doesn't check
 296:main.c        ****         // for a new bit unless something special happened.
 297:main.c        ****         // This code should only run when an edge was detected.
 298:main.c        ****         // TODO Make other code for when state changes to COLLISION
 299:main.c        ****         // or IDLE.
 300:main.c        ****         
 301:main.c        ****         // Save this locally in case of preemption.
 302:main.c        ****         if (localState == BUSY) {
 535              		.loc 1 302 0
 536 007e 002B     		cmp	r3, #0
 537 0080 7CD1     		bne	.L40
 303:main.c        ****             if (edgeDataStatus != DATA_NONE) {
 538              		.loc 1 303 0
 539 0082 504A     		ldr	r2, .L53+24
 540 0084 1278     		ldrb	r2, [r2]	@ zero_extendqisi2
 541 0086 022A     		cmp	r2, #2
 542 0088 E6D0     		beq	.L37
 543              	.LBB3:
 304:main.c        ****                 bool localTimerWrapped = timerWrapped;
 544              		.loc 1 304 0
 545 008a 4F49     		ldr	r1, .L53+28
 546 008c 0D78     		ldrb	r5, [r1]	@ zero_extendqisi2
 547              	.LVL49:
 305:main.c        ****                 EdgeStatus localEdgeStatus = edgeDataStatus;
 306:main.c        ****                 uint16_t inputCaptureTime = lastCapture;
ARM GAS  C:\Users\winstona\AppData\Local\Temp\ccXRDK8a.s 			page 16


 548              		.loc 1 306 0
 549 008e 4F49     		ldr	r1, .L53+32
 550 0090 0988     		ldrh	r1, [r1]
 551              	.LVL50:
 307:main.c        ****                 edgeDataStatus = DATA_NONE;
 552              		.loc 1 307 0
 553 0092 0224     		movs	r4, #2
 554 0094 4B48     		ldr	r0, .L53+24
 555 0096 0470     		strb	r4, [r0]
 308:main.c        ****                 // Error detection. Caused by too many successive IRQs.
 309:main.c        ****                 if (localEdgeStatus == DATA_ERROR) {
 556              		.loc 1 309 0
 557 0098 032A     		cmp	r2, #3
 558 009a 09D1     		bne	.L42
 310:main.c        ****                     // Error state. Stop interpreting received data until idle.
 311:main.c        ****                     rxBit = NO_BIT;
 559              		.loc 1 311 0
 560 009c 0821     		movs	r1, #8
 561              	.LVL51:
 562 009e 4170     		strb	r1, [r0, #1]
 312:main.c        ****                     currRxChar = '\0';
 563              		.loc 1 312 0
 564 00a0 0021     		movs	r1, #0
 565 00a2 4B4A     		ldr	r2, .L53+36
 566              	.LVL52:
 567 00a4 1170     		strb	r1, [r2]
 568              	.L43:
 313:main.c        ****                     while (systemState != IDLE) {}
 569              		.loc 1 313 0 discriminator 1
 570 00a6 022B     		cmp	r3, #2
 571 00a8 FDD1     		bne	.L43
 314:main.c        ****                     edgeDataStatus = DATA_NONE; // Sanity check
 315:main.c        ****                     TimerRX_ClearFIFO();
 572              		.loc 1 315 0
 573 00aa FFF7FEFF 		bl	TimerRX_ClearFIFO
 574              	.LVL53:
 575 00ae D3E7     		b	.L37
 576              	.LVL54:
 577              	.L42:
 316:main.c        ****                 // This code should do bit shifting (or byte shifting if necessary)
 317:main.c        ****                 // on the rising edge.
 318:main.c        ****                 // On the falling edge, after proper high length was confirmed, the
 319:main.c        ****                 // appropriate bit should be set.
 320:main.c        ****                 } else if (localEdgeStatus == DATA_RISING) { // Was last low
 578              		.loc 1 320 0
 579 00b0 002A     		cmp	r2, #0
 580 00b2 4DD1     		bne	.L44
 581              	.LBB4:
 321:main.c        ****                     if (rxBit == 8) {
 582              		.loc 1 321 0
 583 00b4 434A     		ldr	r2, .L53+24
 584              	.LVL55:
 585 00b6 5478     		ldrb	r4, [r2, #1]	@ zero_extendqisi2
 586 00b8 082C     		cmp	r4, #8
 587 00ba 02D1     		bne	.L45
 322:main.c        ****                         rxBit--;
 588              		.loc 1 322 0
ARM GAS  C:\Users\winstona\AppData\Local\Temp\ccXRDK8a.s 			page 17


 589 00bc 013C     		subs	r4, r4, #1
 590 00be 5470     		strb	r4, [r2, #1]
 323:main.c        ****                         continue;
 591              		.loc 1 323 0
 592 00c0 CAE7     		b	.L37
 593              	.L45:
 324:main.c        ****                     }
 325:main.c        ****                     if (localTimerWrapped) {
 594              		.loc 1 325 0
 595 00c2 4DB1     		cbz	r5, .L46
 326:main.c        ****                         rxBit = NO_BIT;
 596              		.loc 1 326 0
 597 00c4 0822     		movs	r2, #8
 598 00c6 3F4B     		ldr	r3, .L53+24
 599              	.LVL56:
 600 00c8 5A70     		strb	r2, [r3, #1]
 327:main.c        ****                         USBUART_PutChar(currRxChar);
 601              		.loc 1 327 0
 602 00ca 414C     		ldr	r4, .L53+36
 603 00cc 2078     		ldrb	r0, [r4]	@ zero_extendqisi2
 604 00ce FFF7FEFF 		bl	USBUART_PutChar
 605              	.LVL57:
 328:main.c        ****                         currRxChar = '\0';
 606              		.loc 1 328 0
 607 00d2 0023     		movs	r3, #0
 608 00d4 2370     		strb	r3, [r4]
 329:main.c        ****                         continue;
 609              		.loc 1 329 0
 610 00d6 BFE7     		b	.L37
 611              	.LVL58:
 612              	.L46:
 330:main.c        ****                     }
 331:main.c        ****                     int timeClk = IDLE_COUNTER - inputCaptureTime;
 613              		.loc 1 331 0
 614 00d8 C1F54F71 		rsb	r1, r1, #828
 615              	.LVL59:
 616 00dc 0131     		adds	r1, r1, #1
 617              	.LVL60:
 332:main.c        ****                     int symbolClkCycles = timeClk % EXPECTED_SYMBOL_TIME_CLK;
 618              		.loc 1 332 0
 619 00de 3D48     		ldr	r0, .L53+40
 620 00e0 80FB0120 		smull	r2, r0, r0, r1
 621 00e4 0011     		asrs	r0, r0, #4
 622 00e6 CD17     		asrs	r5, r1, #31
 623              	.LVL61:
 624 00e8 421B     		subs	r2, r0, r5
 625 00ea 3226     		movs	r6, #50
 626 00ec 06FB1212 		mls	r2, r6, r2, r1
 627              	.LVL62:
 333:main.c        ****                     // Find out the nearest rounding of symbol time.
 334:main.c        ****                     int nearestNumSymbols = timeClk / EXPECTED_SYMBOL_TIME_CLK
 628              		.loc 1 334 0
 629 00f0 401B     		subs	r0, r0, r5
 630 00f2 182A     		cmp	r2, #24
 631 00f4 D4BF     		ite	le
 632 00f6 0246     		movle	r2, r0
 633 00f8 421C     		addgt	r2, r0, #1
ARM GAS  C:\Users\winstona\AppData\Local\Temp\ccXRDK8a.s 			page 18


 634              	.LVL63:
 335:main.c        ****                     + ((symbolClkCycles >= EXPECTED_SYMBOL_TIME_CLK / 2) ? 1 : 0);
 336:main.c        ****                     int bitsToShift = nearestNumSymbols / 2;
 635              		.loc 1 336 0
 636 00fa 02EBD270 		add	r0, r2, r2, lsr #31
 637              	.LVL64:
 638 00fe 4010     		asrs	r0, r0, #1
 639              	.LVL65:
 337:main.c        ****                     if (bitsToShift > rxBit) {
 640              		.loc 1 337 0
 641 0100 A042     		cmp	r0, r4
 642 0102 09DD     		ble	.L47
 338:main.c        ****                         rxBit = START_BIT;
 643              		.loc 1 338 0
 644 0104 0722     		movs	r2, #7
 645              	.LVL66:
 646 0106 2F4B     		ldr	r3, .L53+24
 647              	.LVL67:
 648 0108 5A70     		strb	r2, [r3, #1]
 339:main.c        ****                         USBUART_PutChar(currRxChar);
 649              		.loc 1 339 0
 650 010a 314C     		ldr	r4, .L53+36
 651 010c 2078     		ldrb	r0, [r4]	@ zero_extendqisi2
 652              	.LVL68:
 653 010e FFF7FEFF 		bl	USBUART_PutChar
 654              	.LVL69:
 340:main.c        ****                         currRxChar = '\0';
 655              		.loc 1 340 0
 656 0112 0023     		movs	r3, #0
 657 0114 2370     		strb	r3, [r4]
 341:main.c        **** //                        rxBufferPos++;
 342:main.c        **** //                        *rxBufferPos = '\0'; // Nullify new buffer pos.
 343:main.c        ****                         continue;
 658              		.loc 1 343 0
 659 0116 9FE7     		b	.L37
 660              	.LVL70:
 661              	.L47:
 344:main.c        ****                     }
 345:main.c        ****                     // Improper number of symbols between highs.
 346:main.c        ****                     if ((nearestNumSymbols <= 0)
 662              		.loc 1 346 0
 663 0118 002A     		cmp	r2, #0
 664 011a 0CDD     		ble	.L48
 347:main.c        ****                     || (nearestNumSymbols % 2 == 0) // Even num of symbols
 665              		.loc 1 347 0
 666 011c 12F0010F 		tst	r2, #1
 667 0120 09D0     		beq	.L48
 348:main.c        ****                     // Below appropraite min
 349:main.c        ****                     || (timeClk < 
 350:main.c        ****                      nearestNumSymbols * MIN_RX_HIGH_TIME_CLK) 
 668              		.loc 1 350 0
 669 0122 02EB4206 		add	r6, r2, r2, lsl #1
 670              	.LVL71:
 671 0126 3501     		lsls	r5, r6, #4
 672              	.LVL72:
 349:main.c        ****                      nearestNumSymbols * MIN_RX_HIGH_TIME_CLK) 
 673              		.loc 1 349 0
ARM GAS  C:\Users\winstona\AppData\Local\Temp\ccXRDK8a.s 			page 19


 674 0128 A942     		cmp	r1, r5
 675 012a 04DB     		blt	.L48
 351:main.c        ****                     // Below appropriate min
 352:main.c        ****                     || (timeClk > 
 353:main.c        ****                      nearestNumSymbols * MAX_RX_HIGH_TIME_CLK)) {
 676              		.loc 1 353 0
 677 012c 3425     		movs	r5, #52
 678 012e 05FB02F2 		mul	r2, r5, r2
 679              	.LVL73:
 352:main.c        ****                      nearestNumSymbols * MAX_RX_HIGH_TIME_CLK)) {
 680              		.loc 1 352 0
 681 0132 9142     		cmp	r1, r2
 682 0134 08DD     		ble	.L49
 683              	.L48:
 684              	.LVL74:
 685              	.LBB5:
 354:main.c        ****                         // Error state.
 355:main.c        ****                         int x = nearestNumSymbols;
 356:main.c        ****                         timeClk;
 357:main.c        ****                         rxBit = NO_BIT;
 686              		.loc 1 357 0
 687 0136 0821     		movs	r1, #8
 688              	.LVL75:
 689 0138 224A     		ldr	r2, .L53+24
 690 013a 5170     		strb	r1, [r2, #1]
 358:main.c        ****                         currRxChar = '\0';
 691              		.loc 1 358 0
 692 013c 0021     		movs	r1, #0
 693 013e 244A     		ldr	r2, .L53+36
 694 0140 1170     		strb	r1, [r2]
 695              	.L50:
 359:main.c        ****                         // *rxBufferPos = '\0';
 360:main.c        ****                         while (systemState != IDLE) {}
 696              		.loc 1 360 0 discriminator 1
 697 0142 022B     		cmp	r3, #2
 698 0144 FDD1     		bne	.L50
 699 0146 87E7     		b	.L37
 700              	.LVL76:
 701              	.L49:
 702              	.LBE5:
 361:main.c        ****                     } else {
 362:main.c        ****                         // Will round down properly, since 0.5 is truncated.
 363:main.c        ****                         rxBit -= bitsToShift;
 703              		.loc 1 363 0
 704 0148 241A     		subs	r4, r4, r0
 705 014a 1E4B     		ldr	r3, .L53+24
 706              	.LVL77:
 707 014c 5C70     		strb	r4, [r3, #1]
 708 014e 83E7     		b	.L37
 709              	.LVL78:
 710              	.L44:
 711              	.LBE4:
 712              	.LBB6:
 364:main.c        ****                     }
 365:main.c        ****                 } else { // Was last high.
 366:main.c        ****                     int timeClk = COLLISION_COUNTER - inputCaptureTime;
 713              		.loc 1 366 0
ARM GAS  C:\Users\winstona\AppData\Local\Temp\ccXRDK8a.s 			page 20


 714 0150 C1F13301 		rsb	r1, r1, #51
 715              	.LVL79:
 367:main.c        ****                     if ((timeClk >= MIN_RX_HIGH_TIME_CLK) && !localTimerWrapped) {
 716              		.loc 1 367 0
 717 0154 2F29     		cmp	r1, #47
 718 0156 7FF77FAF 		ble	.L37
 719              		.loc 1 367 0 is_stmt 0 discriminator 1
 720 015a 002D     		cmp	r5, #0
 721 015c 7FF47CAF 		bne	.L37
 368:main.c        ****                         currRxChar |= (1 << rxBit);
 722              		.loc 1 368 0 is_stmt 1
 723 0160 184B     		ldr	r3, .L53+24
 724              	.LVL80:
 725 0162 5A78     		ldrb	r2, [r3, #1]	@ zero_extendqisi2
 726              	.LVL81:
 727 0164 0123     		movs	r3, #1
 728 0166 9340     		lsls	r3, r3, r2
 729 0168 1949     		ldr	r1, .L53+36
 730              	.LVL82:
 731 016a 0878     		ldrb	r0, [r1]	@ zero_extendqisi2
 732 016c 0343     		orrs	r3, r3, r0
 733 016e 0B70     		strb	r3, [r1]
 369:main.c        ****                         USBUART_PutChar(rxBit+0x30);
 734              		.loc 1 369 0
 735 0170 02F13000 		add	r0, r2, #48
 736 0174 C0B2     		uxtb	r0, r0
 737 0176 FFF7FEFF 		bl	USBUART_PutChar
 738              	.LVL83:
 739 017a 6DE7     		b	.L37
 740              	.LVL84:
 741              	.L40:
 742              	.LBE6:
 743              	.LBE3:
 370:main.c        ****                         // *rxBufferPos |= (1 << rxBit);
 371:main.c        ****                     }
 372:main.c        ****                 }
 373:main.c        ****             }
 374:main.c        ****         } else if (localState == IDLE) {
 744              		.loc 1 374 0
 745 017c 022B     		cmp	r3, #2
 746 017e 0ED1     		bne	.L51
 375:main.c        ****             // If idle, finish off current bit.
 376:main.c        ****             if (rxBit != NO_BIT) {
 747              		.loc 1 376 0
 748 0180 104B     		ldr	r3, .L53+24
 749              	.LVL85:
 750 0182 5B78     		ldrb	r3, [r3, #1]	@ zero_extendqisi2
 751 0184 082B     		cmp	r3, #8
 752 0186 3FF467AF 		beq	.L37
 377:main.c        ****                 USBUART_PutChar(currRxChar);
 753              		.loc 1 377 0
 754 018a 114C     		ldr	r4, .L53+36
 755 018c 2078     		ldrb	r0, [r4]	@ zero_extendqisi2
 756 018e FFF7FEFF 		bl	USBUART_PutChar
 757              	.LVL86:
 378:main.c        ****                 currRxChar = '\0';
 758              		.loc 1 378 0
ARM GAS  C:\Users\winstona\AppData\Local\Temp\ccXRDK8a.s 			page 21


 759 0192 0023     		movs	r3, #0
 760 0194 2370     		strb	r3, [r4]
 379:main.c        ****                 // rxBufferPos++;
 380:main.c        ****                 // *rxBufferPos = '\0';
 381:main.c        ****                 rxBit = NO_BIT;
 761              		.loc 1 381 0
 762 0196 0822     		movs	r2, #8
 763 0198 0A4B     		ldr	r3, .L53+24
 764 019a 5A70     		strb	r2, [r3, #1]
 765 019c 5CE7     		b	.L37
 766              	.LVL87:
 767              	.L51:
 382:main.c        ****             }
 383:main.c        ****         } else {
 384:main.c        ****             // If collision, STOP trying to receive current bit.
 385:main.c        ****             rxBit = NO_BIT;
 768              		.loc 1 385 0
 769 019e 0822     		movs	r2, #8
 770 01a0 084B     		ldr	r3, .L53+24
 771              	.LVL88:
 772 01a2 5A70     		strb	r2, [r3, #1]
 386:main.c        ****             currRxChar = '\0';
 773              		.loc 1 386 0
 774 01a4 0022     		movs	r2, #0
 775 01a6 0A4B     		ldr	r3, .L53+36
 776 01a8 1A70     		strb	r2, [r3]
 777 01aa 55E7     		b	.L37
 778              	.L54:
 779              		.align	2
 780              	.L53:
 781 01ac 00000000 		.word	RisingEdgeInterruptHandler
 782 01b0 00000000 		.word	FallingEdgeInterruptHandler
 783 01b4 00000000 		.word	ReceiveInterruptHandler
 784 01b8 00000000 		.word	USBUART_device
 785 01bc 00000000 		.word	.LC0
 786 01c0 00000000 		.word	systemState
 787 01c4 00000000 		.word	.LANCHOR1
 788 01c8 00000000 		.word	timerWrapped
 789 01cc 00000000 		.word	lastCapture
 790 01d0 00000000 		.word	currRxChar
 791 01d4 1F85EB51 		.word	1374389535
 792              	.LBE2:
 793              		.cfi_endproc
 794              	.LFE68:
 795              		.size	main, .-main
 796              		.comm	timerWrapped,1,1
 797              		.comm	currRxChar,1,1
 798              		.comm	lastCapture,2,2
 799              		.global	edgeDataStatus
 800              		.global	rxBit
 801              		.global	idx
 802              		.comm	count,4,4
 803              		.global	symbolPosition
 804              		.comm	dataSize,4,4
 805              		.comm	data,16,4
 806              		.comm	buffer,500,4
 807              		.global	bufferPosition
ARM GAS  C:\Users\winstona\AppData\Local\Temp\ccXRDK8a.s 			page 22


 808              		.comm	currentDataCharacter,1,1
 809              		.global	logicLevel
 810              		.comm	systemState,1,1
 811              		.data
 812              		.set	.LANCHOR1,. + 0
 813              		.type	edgeDataStatus, %object
 814              		.size	edgeDataStatus, 1
 815              	edgeDataStatus:
 816 0000 02       		.byte	2
 817              		.type	rxBit, %object
 818              		.size	rxBit, 1
 819              	rxBit:
 820 0001 08       		.byte	8
 821              		.section	.rodata.str1.4,"aMS",%progbits,1
 822              		.align	2
 823              	.LC0:
 824 0000 536F7572 		.ascii	"Source Address: \000"
 824      63652041 
 824      64647265 
 824      73733A20 
 824      00
 825              		.bss
 826              		.align	2
 827              		.set	.LANCHOR0,. + 0
 828              		.type	logicLevel, %object
 829              		.size	logicLevel, 1
 830              	logicLevel:
 831 0000 00       		.space	1
 832 0001 000000   		.space	3
 833              		.type	bufferPosition, %object
 834              		.size	bufferPosition, 4
 835              	bufferPosition:
 836 0004 00000000 		.space	4
 837              		.type	symbolPosition, %object
 838              		.size	symbolPosition, 4
 839              	symbolPosition:
 840 0008 00000000 		.space	4
 841              		.type	idx, %object
 842              		.size	idx, 4
 843              	idx:
 844 000c 00000000 		.space	4
 845              		.text
 846              	.Letext0:
 847              		.file 2 "c:\\program files (x86)\\cypress\\psoc creator\\4.1\\psoc creator\\import\\gnu\\arm\\5.4.
 848              		.file 3 "c:\\program files (x86)\\cypress\\psoc creator\\4.1\\psoc creator\\import\\gnu\\arm\\5.4.
 849              		.file 4 "Generated_Source\\PSoC5/cytypes.h"
 850              		.file 5 "Generated_Source\\PSoC5/USBUART.h"
 851              		.file 6 "Generated_Source\\PSoC5/core_cm3.h"
 852              		.file 7 "Generated_Source\\PSoC5/COLLISION.h"
 853              		.file 8 "Generated_Source\\PSoC5/IDLE.h"
 854              		.file 9 "Generated_Source\\PSoC5/BUSY.h"
 855              		.file 10 "Generated_Source\\PSoC5/RisingEdgeISR.h"
 856              		.file 11 "Generated_Source\\PSoC5/TimerRX.h"
 857              		.file 12 "Generated_Source\\PSoC5/FallingEdgeISR.h"
 858              		.file 13 "Generated_Source\\PSoC5/TRANSMIT.h"
 859              		.file 14 "Generated_Source\\PSoC5/CyLib.h"
 860              		.file 15 "Generated_Source\\PSoC5/USBUART_cdc.h"
ARM GAS  C:\Users\winstona\AppData\Local\Temp\ccXRDK8a.s 			page 23


 861              		.file 16 "Generated_Source\\PSoC5/ReceiveISR.h"
 862              		.section	.debug_info,"",%progbits
 863              	.Ldebug_info0:
 864 0000 F4070000 		.4byte	0x7f4
 865 0004 0400     		.2byte	0x4
 866 0006 00000000 		.4byte	.Ldebug_abbrev0
 867 000a 04       		.byte	0x4
 868 000b 01       		.uleb128 0x1
 869 000c ED040000 		.4byte	.LASF85
 870 0010 0C       		.byte	0xc
 871 0011 EC030000 		.4byte	.LASF86
 872 0015 5C020000 		.4byte	.LASF87
 873 0019 00000000 		.4byte	.Ldebug_ranges0+0
 874 001d 00000000 		.4byte	0
 875 0021 00000000 		.4byte	.Ldebug_line0
 876 0025 02       		.uleb128 0x2
 877 0026 08       		.byte	0x8
 878 0027 07       		.byte	0x7
 879 0028 45020000 		.4byte	.LASF0
 880 002c 02       		.uleb128 0x2
 881 002d 04       		.byte	0x4
 882 002e 07       		.byte	0x7
 883 002f B9020000 		.4byte	.LASF1
 884 0033 03       		.uleb128 0x3
 885 0034 04       		.byte	0x4
 886 0035 05       		.byte	0x5
 887 0036 696E7400 		.ascii	"int\000"
 888 003a 02       		.uleb128 0x2
 889 003b 01       		.byte	0x1
 890 003c 06       		.byte	0x6
 891 003d 39020000 		.4byte	.LASF2
 892 0041 04       		.uleb128 0x4
 893 0042 BE010000 		.4byte	.LASF5
 894 0046 02       		.byte	0x2
 895 0047 1D       		.byte	0x1d
 896 0048 4C000000 		.4byte	0x4c
 897 004c 02       		.uleb128 0x2
 898 004d 01       		.byte	0x1
 899 004e 08       		.byte	0x8
 900 004f 0F020000 		.4byte	.LASF3
 901 0053 02       		.uleb128 0x2
 902 0054 02       		.byte	0x2
 903 0055 05       		.byte	0x5
 904 0056 6C000000 		.4byte	.LASF4
 905 005a 04       		.uleb128 0x4
 906 005b B2000000 		.4byte	.LASF6
 907 005f 02       		.byte	0x2
 908 0060 2B       		.byte	0x2b
 909 0061 65000000 		.4byte	0x65
 910 0065 02       		.uleb128 0x2
 911 0066 02       		.byte	0x2
 912 0067 07       		.byte	0x7
 913 0068 21030000 		.4byte	.LASF7
 914 006c 04       		.uleb128 0x4
 915 006d 6E040000 		.4byte	.LASF8
 916 0071 02       		.byte	0x2
 917 0072 3F       		.byte	0x3f
ARM GAS  C:\Users\winstona\AppData\Local\Temp\ccXRDK8a.s 			page 24


 918 0073 77000000 		.4byte	0x77
 919 0077 02       		.uleb128 0x2
 920 0078 04       		.byte	0x4
 921 0079 05       		.byte	0x5
 922 007a 9A010000 		.4byte	.LASF9
 923 007e 02       		.uleb128 0x2
 924 007f 04       		.byte	0x4
 925 0080 07       		.byte	0x7
 926 0081 F8030000 		.4byte	.LASF10
 927 0085 02       		.uleb128 0x2
 928 0086 08       		.byte	0x8
 929 0087 05       		.byte	0x5
 930 0088 60010000 		.4byte	.LASF11
 931 008c 04       		.uleb128 0x4
 932 008d F3000000 		.4byte	.LASF12
 933 0091 03       		.byte	0x3
 934 0092 18       		.byte	0x18
 935 0093 41000000 		.4byte	0x41
 936 0097 04       		.uleb128 0x4
 937 0098 C6020000 		.4byte	.LASF13
 938 009c 03       		.byte	0x3
 939 009d 24       		.byte	0x24
 940 009e 5A000000 		.4byte	0x5a
 941 00a2 04       		.uleb128 0x4
 942 00a3 47030000 		.4byte	.LASF14
 943 00a7 03       		.byte	0x3
 944 00a8 2C       		.byte	0x2c
 945 00a9 6C000000 		.4byte	0x6c
 946 00ad 05       		.uleb128 0x5
 947 00ae B6040000 		.4byte	.LASF15
 948 00b2 04       		.byte	0x4
 949 00b3 9201     		.2byte	0x192
 950 00b5 4C000000 		.4byte	0x4c
 951 00b9 02       		.uleb128 0x2
 952 00ba 04       		.byte	0x4
 953 00bb 04       		.byte	0x4
 954 00bc 41010000 		.4byte	.LASF16
 955 00c0 02       		.uleb128 0x2
 956 00c1 08       		.byte	0x8
 957 00c2 04       		.byte	0x4
 958 00c3 15040000 		.4byte	.LASF17
 959 00c7 02       		.uleb128 0x2
 960 00c8 01       		.byte	0x1
 961 00c9 08       		.byte	0x8
 962 00ca 3C030000 		.4byte	.LASF18
 963 00ce 05       		.uleb128 0x5
 964 00cf F3030000 		.4byte	.LASF19
 965 00d3 04       		.byte	0x4
 966 00d4 3C02     		.2byte	0x23c
 967 00d6 DA000000 		.4byte	0xda
 968 00da 06       		.uleb128 0x6
 969 00db AD000000 		.4byte	0xad
 970 00df 02       		.uleb128 0x2
 971 00e0 08       		.byte	0x8
 972 00e1 04       		.byte	0x4
 973 00e2 F3010000 		.4byte	.LASF20
 974 00e6 02       		.uleb128 0x2
ARM GAS  C:\Users\winstona\AppData\Local\Temp\ccXRDK8a.s 			page 25


 975 00e7 04       		.byte	0x4
 976 00e8 07       		.byte	0x7
 977 00e9 83000000 		.4byte	.LASF21
 978 00ed 07       		.uleb128 0x7
 979 00ee 01       		.byte	0x1
 980 00ef 4C000000 		.4byte	0x4c
 981 00f3 01       		.byte	0x1
 982 00f4 30       		.byte	0x30
 983 00f5 0C010000 		.4byte	0x10c
 984 00f9 08       		.uleb128 0x8
 985 00fa EE010000 		.4byte	.LASF22
 986 00fe 00       		.byte	0
 987 00ff 08       		.uleb128 0x8
 988 0100 E4010000 		.4byte	.LASF23
 989 0104 01       		.byte	0x1
 990 0105 08       		.uleb128 0x8
 991 0106 09010000 		.4byte	.LASF24
 992 010a 02       		.byte	0x2
 993 010b 00       		.byte	0
 994 010c 04       		.uleb128 0x4
 995 010d 6E010000 		.4byte	.LASF25
 996 0111 01       		.byte	0x1
 997 0112 30       		.byte	0x30
 998 0113 ED000000 		.4byte	0xed
 999 0117 07       		.uleb128 0x7
 1000 0118 01       		.byte	0x1
 1001 0119 4C000000 		.4byte	0x4c
 1002 011d 01       		.byte	0x1
 1003 011e 4B       		.byte	0x4b
 1004 011f 3C010000 		.4byte	0x13c
 1005 0123 08       		.uleb128 0x8
 1006 0124 0E010000 		.4byte	.LASF26
 1007 0128 00       		.byte	0
 1008 0129 08       		.uleb128 0x8
 1009 012a 76000000 		.4byte	.LASF27
 1010 012e 01       		.byte	0x1
 1011 012f 08       		.uleb128 0x8
 1012 0130 25000000 		.4byte	.LASF28
 1013 0134 02       		.byte	0x2
 1014 0135 08       		.uleb128 0x8
 1015 0136 47040000 		.4byte	.LASF29
 1016 013a 03       		.byte	0x3
 1017 013b 00       		.byte	0
 1018 013c 04       		.uleb128 0x4
 1019 013d 0A040000 		.4byte	.LASF30
 1020 0141 01       		.byte	0x1
 1021 0142 4B       		.byte	0x4b
 1022 0143 17010000 		.4byte	0x117
 1023 0147 09       		.uleb128 0x9
 1024 0148 54000000 		.4byte	.LASF31
 1025 014c 01       		.byte	0x1
 1026 014d 66       		.byte	0x66
 1027 014e 00000000 		.4byte	.LFB64
 1028 0152 54000000 		.4byte	.LFE64-.LFB64
 1029 0156 01       		.uleb128 0x1
 1030 0157 9C       		.byte	0x9c
 1031 0158 CB010000 		.4byte	0x1cb
ARM GAS  C:\Users\winstona\AppData\Local\Temp\ccXRDK8a.s 			page 26


 1032 015c 0A       		.uleb128 0xa
 1033 015d 16000000 		.4byte	.LVL0
 1034 0161 EC060000 		.4byte	0x6ec
 1035 0165 6F010000 		.4byte	0x16f
 1036 0169 0B       		.uleb128 0xb
 1037 016a 01       		.uleb128 0x1
 1038 016b 50       		.byte	0x50
 1039 016c 01       		.uleb128 0x1
 1040 016d 31       		.byte	0x31
 1041 016e 00       		.byte	0
 1042 016f 0A       		.uleb128 0xa
 1043 0170 1C000000 		.4byte	.LVL1
 1044 0174 F7060000 		.4byte	0x6f7
 1045 0178 82010000 		.4byte	0x182
 1046 017c 0B       		.uleb128 0xb
 1047 017d 01       		.uleb128 0x1
 1048 017e 50       		.byte	0x50
 1049 017f 01       		.uleb128 0x1
 1050 0180 30       		.byte	0x30
 1051 0181 00       		.byte	0
 1052 0182 0A       		.uleb128 0xa
 1053 0183 22000000 		.4byte	.LVL2
 1054 0187 02070000 		.4byte	0x702
 1055 018b 95010000 		.4byte	0x195
 1056 018f 0B       		.uleb128 0xb
 1057 0190 01       		.uleb128 0x1
 1058 0191 50       		.byte	0x50
 1059 0192 01       		.uleb128 0x1
 1060 0193 30       		.byte	0x30
 1061 0194 00       		.byte	0
 1062 0195 0A       		.uleb128 0xa
 1063 0196 30000000 		.4byte	.LVL3
 1064 019a EC060000 		.4byte	0x6ec
 1065 019e A8010000 		.4byte	0x1a8
 1066 01a2 0B       		.uleb128 0xb
 1067 01a3 01       		.uleb128 0x1
 1068 01a4 50       		.byte	0x50
 1069 01a5 01       		.uleb128 0x1
 1070 01a6 30       		.byte	0x30
 1071 01a7 00       		.byte	0
 1072 01a8 0A       		.uleb128 0xa
 1073 01a9 36000000 		.4byte	.LVL4
 1074 01ad F7060000 		.4byte	0x6f7
 1075 01b1 BB010000 		.4byte	0x1bb
 1076 01b5 0B       		.uleb128 0xb
 1077 01b6 01       		.uleb128 0x1
 1078 01b7 50       		.byte	0x50
 1079 01b8 01       		.uleb128 0x1
 1080 01b9 31       		.byte	0x31
 1081 01ba 00       		.byte	0
 1082 01bb 0C       		.uleb128 0xc
 1083 01bc 3C000000 		.4byte	.LVL5
 1084 01c0 02070000 		.4byte	0x702
 1085 01c4 0B       		.uleb128 0xb
 1086 01c5 01       		.uleb128 0x1
 1087 01c6 50       		.byte	0x50
 1088 01c7 01       		.uleb128 0x1
ARM GAS  C:\Users\winstona\AppData\Local\Temp\ccXRDK8a.s 			page 27


 1089 01c8 30       		.byte	0x30
 1090 01c9 00       		.byte	0
 1091 01ca 00       		.byte	0
 1092 01cb 09       		.uleb128 0x9
 1093 01cc 87050000 		.4byte	.LASF32
 1094 01d0 01       		.byte	0x1
 1095 01d1 84       		.byte	0x84
 1096 01d2 00000000 		.4byte	.LFB65
 1097 01d6 74000000 		.4byte	.LFE65-.LFB65
 1098 01da 01       		.uleb128 0x1
 1099 01db 9C       		.byte	0x9c
 1100 01dc 64020000 		.4byte	0x264
 1101 01e0 0D       		.uleb128 0xd
 1102 01e1 0C000000 		.4byte	.LVL6
 1103 01e5 0D070000 		.4byte	0x70d
 1104 01e9 0D       		.uleb128 0xd
 1105 01ea 10000000 		.4byte	.LVL7
 1106 01ee 18070000 		.4byte	0x718
 1107 01f2 0D       		.uleb128 0xd
 1108 01f3 14000000 		.4byte	.LVL8
 1109 01f7 23070000 		.4byte	0x723
 1110 01fb 0A       		.uleb128 0xa
 1111 01fc 1E000000 		.4byte	.LVL9
 1112 0200 2E070000 		.4byte	0x72e
 1113 0204 0F020000 		.4byte	0x20f
 1114 0208 0B       		.uleb128 0xb
 1115 0209 01       		.uleb128 0x1
 1116 020a 50       		.byte	0x50
 1117 020b 02       		.uleb128 0x2
 1118 020c 08       		.byte	0x8
 1119 020d 34       		.byte	0x34
 1120 020e 00       		.byte	0
 1121 020f 0A       		.uleb128 0xa
 1122 0210 24000000 		.4byte	.LVL10
 1123 0214 39070000 		.4byte	0x739
 1124 0218 23020000 		.4byte	0x223
 1125 021c 0B       		.uleb128 0xb
 1126 021d 01       		.uleb128 0x1
 1127 021e 50       		.byte	0x50
 1128 021f 02       		.uleb128 0x2
 1129 0220 08       		.byte	0x8
 1130 0221 33       		.byte	0x33
 1131 0222 00       		.byte	0
 1132 0223 0D       		.uleb128 0xd
 1133 0224 28000000 		.4byte	.LVL11
 1134 0228 44070000 		.4byte	0x744
 1135 022c 0A       		.uleb128 0xa
 1136 022d 38000000 		.4byte	.LVL12
 1137 0231 02070000 		.4byte	0x702
 1138 0235 3F020000 		.4byte	0x23f
 1139 0239 0B       		.uleb128 0xb
 1140 023a 01       		.uleb128 0x1
 1141 023b 50       		.byte	0x50
 1142 023c 01       		.uleb128 0x1
 1143 023d 31       		.byte	0x31
 1144 023e 00       		.byte	0
 1145 023f 0A       		.uleb128 0xa
ARM GAS  C:\Users\winstona\AppData\Local\Temp\ccXRDK8a.s 			page 28


 1146 0240 3E000000 		.4byte	.LVL13
 1147 0244 EC060000 		.4byte	0x6ec
 1148 0248 53020000 		.4byte	0x253
 1149 024c 0B       		.uleb128 0xb
 1150 024d 01       		.uleb128 0x1
 1151 024e 50       		.byte	0x50
 1152 024f 02       		.uleb128 0x2
 1153 0250 74       		.byte	0x74
 1154 0251 00       		.sleb128 0
 1155 0252 00       		.byte	0
 1156 0253 0C       		.uleb128 0xc
 1157 0254 44000000 		.4byte	.LVL14
 1158 0258 F7060000 		.4byte	0x6f7
 1159 025c 0B       		.uleb128 0xb
 1160 025d 01       		.uleb128 0x1
 1161 025e 50       		.byte	0x50
 1162 025f 02       		.uleb128 0x2
 1163 0260 74       		.byte	0x74
 1164 0261 00       		.sleb128 0
 1165 0262 00       		.byte	0
 1166 0263 00       		.byte	0
 1167 0264 09       		.uleb128 0x9
 1168 0265 C8010000 		.4byte	.LASF33
 1169 0269 01       		.byte	0x1
 1170 026a A8       		.byte	0xa8
 1171 026b 00000000 		.4byte	.LFB66
 1172 026f 7C000000 		.4byte	.LFE66-.LFB66
 1173 0273 01       		.uleb128 0x1
 1174 0274 9C       		.byte	0x9c
 1175 0275 FF020000 		.4byte	0x2ff
 1176 0279 0D       		.uleb128 0xd
 1177 027a 0C000000 		.4byte	.LVL15
 1178 027e 4F070000 		.4byte	0x74f
 1179 0282 0D       		.uleb128 0xd
 1180 0283 10000000 		.4byte	.LVL16
 1181 0287 18070000 		.4byte	0x718
 1182 028b 0D       		.uleb128 0xd
 1183 028c 14000000 		.4byte	.LVL17
 1184 0290 23070000 		.4byte	0x723
 1185 0294 0A       		.uleb128 0xa
 1186 0295 20000000 		.4byte	.LVL18
 1187 0299 2E070000 		.4byte	0x72e
 1188 029d A9020000 		.4byte	0x2a9
 1189 02a1 0B       		.uleb128 0xb
 1190 02a2 01       		.uleb128 0x1
 1191 02a3 50       		.byte	0x50
 1192 02a4 03       		.uleb128 0x3
 1193 02a5 0A       		.byte	0xa
 1194 02a6 3E03     		.2byte	0x33e
 1195 02a8 00       		.byte	0
 1196 02a9 0A       		.uleb128 0xa
 1197 02aa 28000000 		.4byte	.LVL19
 1198 02ae 39070000 		.4byte	0x739
 1199 02b2 BE020000 		.4byte	0x2be
 1200 02b6 0B       		.uleb128 0xb
 1201 02b7 01       		.uleb128 0x1
 1202 02b8 50       		.byte	0x50
ARM GAS  C:\Users\winstona\AppData\Local\Temp\ccXRDK8a.s 			page 29


 1203 02b9 03       		.uleb128 0x3
 1204 02ba 0A       		.byte	0xa
 1205 02bb 3D03     		.2byte	0x33d
 1206 02bd 00       		.byte	0
 1207 02be 0D       		.uleb128 0xd
 1208 02bf 2C000000 		.4byte	.LVL20
 1209 02c3 44070000 		.4byte	0x744
 1210 02c7 0A       		.uleb128 0xa
 1211 02c8 3C000000 		.4byte	.LVL21
 1212 02cc 02070000 		.4byte	0x702
 1213 02d0 DA020000 		.4byte	0x2da
 1214 02d4 0B       		.uleb128 0xb
 1215 02d5 01       		.uleb128 0x1
 1216 02d6 50       		.byte	0x50
 1217 02d7 01       		.uleb128 0x1
 1218 02d8 31       		.byte	0x31
 1219 02d9 00       		.byte	0
 1220 02da 0A       		.uleb128 0xa
 1221 02db 42000000 		.4byte	.LVL22
 1222 02df EC060000 		.4byte	0x6ec
 1223 02e3 EE020000 		.4byte	0x2ee
 1224 02e7 0B       		.uleb128 0xb
 1225 02e8 01       		.uleb128 0x1
 1226 02e9 50       		.byte	0x50
 1227 02ea 02       		.uleb128 0x2
 1228 02eb 74       		.byte	0x74
 1229 02ec 00       		.sleb128 0
 1230 02ed 00       		.byte	0
 1231 02ee 0C       		.uleb128 0xc
 1232 02ef 48000000 		.4byte	.LVL23
 1233 02f3 F7060000 		.4byte	0x6f7
 1234 02f7 0B       		.uleb128 0xb
 1235 02f8 01       		.uleb128 0x1
 1236 02f9 50       		.byte	0x50
 1237 02fa 02       		.uleb128 0x2
 1238 02fb 74       		.byte	0x74
 1239 02fc 00       		.sleb128 0
 1240 02fd 00       		.byte	0
 1241 02fe 00       		.byte	0
 1242 02ff 09       		.uleb128 0x9
 1243 0300 81010000 		.4byte	.LASF34
 1244 0304 01       		.byte	0x1
 1245 0305 CA       		.byte	0xca
 1246 0306 00000000 		.4byte	.LFB67
 1247 030a C4000000 		.4byte	.LFE67-.LFB67
 1248 030e 01       		.uleb128 0x1
 1249 030f 9C       		.byte	0x9c
 1250 0310 85030000 		.4byte	0x385
 1251 0314 0A       		.uleb128 0xa
 1252 0315 26000000 		.4byte	.LVL24
 1253 0319 5A070000 		.4byte	0x75a
 1254 031d 27030000 		.4byte	0x327
 1255 0321 0B       		.uleb128 0xb
 1256 0322 01       		.uleb128 0x1
 1257 0323 50       		.byte	0x50
 1258 0324 01       		.uleb128 0x1
 1259 0325 31       		.byte	0x31
ARM GAS  C:\Users\winstona\AppData\Local\Temp\ccXRDK8a.s 			page 30


 1260 0326 00       		.byte	0
 1261 0327 0A       		.uleb128 0xa
 1262 0328 3E000000 		.4byte	.LVL25
 1263 032c 5A070000 		.4byte	0x75a
 1264 0330 3A030000 		.4byte	0x33a
 1265 0334 0B       		.uleb128 0xb
 1266 0335 01       		.uleb128 0x1
 1267 0336 50       		.byte	0x50
 1268 0337 01       		.uleb128 0x1
 1269 0338 30       		.byte	0x30
 1270 0339 00       		.byte	0
 1271 033a 0A       		.uleb128 0xa
 1272 033b 60000000 		.4byte	.LVL26
 1273 033f 5A070000 		.4byte	0x75a
 1274 0343 4D030000 		.4byte	0x34d
 1275 0347 0B       		.uleb128 0xb
 1276 0348 01       		.uleb128 0x1
 1277 0349 50       		.byte	0x50
 1278 034a 01       		.uleb128 0x1
 1279 034b 31       		.byte	0x31
 1280 034c 00       		.byte	0
 1281 034d 0A       		.uleb128 0xa
 1282 034e 72000000 		.4byte	.LVL27
 1283 0352 5A070000 		.4byte	0x75a
 1284 0356 60030000 		.4byte	0x360
 1285 035a 0B       		.uleb128 0xb
 1286 035b 01       		.uleb128 0x1
 1287 035c 50       		.byte	0x50
 1288 035d 01       		.uleb128 0x1
 1289 035e 30       		.byte	0x30
 1290 035f 00       		.byte	0
 1291 0360 0A       		.uleb128 0xa
 1292 0361 8C000000 		.4byte	.LVL28
 1293 0365 65070000 		.4byte	0x765
 1294 0369 75030000 		.4byte	0x375
 1295 036d 0B       		.uleb128 0xb
 1296 036e 01       		.uleb128 0x1
 1297 036f 50       		.byte	0x50
 1298 0370 03       		.uleb128 0x3
 1299 0371 0A       		.byte	0xa
 1300 0372 C201     		.2byte	0x1c2
 1301 0374 00       		.byte	0
 1302 0375 0C       		.uleb128 0xc
 1303 0376 AA000000 		.4byte	.LVL29
 1304 037a 5A070000 		.4byte	0x75a
 1305 037e 0B       		.uleb128 0xb
 1306 037f 01       		.uleb128 0x1
 1307 0380 50       		.byte	0x50
 1308 0381 01       		.uleb128 0x1
 1309 0382 30       		.byte	0x30
 1310 0383 00       		.byte	0
 1311 0384 00       		.byte	0
 1312 0385 0E       		.uleb128 0xe
 1313 0386 AD000000 		.4byte	.LASF88
 1314 038a 01       		.byte	0x1
 1315 038b F7       		.byte	0xf7
 1316 038c 33000000 		.4byte	0x33
ARM GAS  C:\Users\winstona\AppData\Local\Temp\ccXRDK8a.s 			page 31


 1317 0390 00000000 		.4byte	.LFB68
 1318 0394 D8010000 		.4byte	.LFE68-.LFB68
 1319 0398 01       		.uleb128 0x1
 1320 0399 9C       		.byte	0x9c
 1321 039a A8050000 		.4byte	0x5a8
 1322 039e 0F       		.uleb128 0xf
 1323 039f 58000000 		.4byte	.LBB2
 1324 03a3 80010000 		.4byte	.LBE2-.LBB2
 1325 03a7 00050000 		.4byte	0x500
 1326 03ab 10       		.uleb128 0x10
 1327 03ac FB000000 		.4byte	.LASF35
 1328 03b0 01       		.byte	0x1
 1329 03b1 1501     		.2byte	0x115
 1330 03b3 33000000 		.4byte	0x33
 1331 03b7 00       		.byte	0
 1332 03b8 11       		.uleb128 0x11
 1333 03b9 63040000 		.4byte	.LASF36
 1334 03bd 01       		.byte	0x1
 1335 03be 2601     		.2byte	0x126
 1336 03c0 0C010000 		.4byte	0x10c
 1337 03c4 00000000 		.4byte	.LLST0
 1338 03c8 0F       		.uleb128 0xf
 1339 03c9 8A000000 		.4byte	.LBB3
 1340 03cd F2000000 		.4byte	.LBE3-.LBB3
 1341 03d1 B2040000 		.4byte	0x4b2
 1342 03d5 11       		.uleb128 0x11
 1343 03d6 00000000 		.4byte	.LASF37
 1344 03da 01       		.byte	0x1
 1345 03db 3001     		.2byte	0x130
 1346 03dd A8050000 		.4byte	0x5a8
 1347 03e1 AF000000 		.4byte	.LLST1
 1348 03e5 11       		.uleb128 0x11
 1349 03e6 37040000 		.4byte	.LASF38
 1350 03ea 01       		.byte	0x1
 1351 03eb 3101     		.2byte	0x131
 1352 03ed 3C010000 		.4byte	0x13c
 1353 03f1 EB000000 		.4byte	.LLST2
 1354 03f5 11       		.uleb128 0x11
 1355 03f6 FD020000 		.4byte	.LASF39
 1356 03fa 01       		.byte	0x1
 1357 03fb 3201     		.2byte	0x132
 1358 03fd 97000000 		.4byte	0x97
 1359 0401 5F010000 		.4byte	.LLST3
 1360 0405 0F       		.uleb128 0xf
 1361 0406 B4000000 		.4byte	.LBB4
 1362 040a 9C000000 		.4byte	.LBE4-.LBB4
 1363 040e 81040000 		.4byte	0x481
 1364 0412 11       		.uleb128 0x11
 1365 0413 34030000 		.4byte	.LASF40
 1366 0417 01       		.byte	0x1
 1367 0418 4B01     		.2byte	0x14b
 1368 041a 33000000 		.4byte	0x33
 1369 041e CF010000 		.4byte	.LLST4
 1370 0422 11       		.uleb128 0x11
 1371 0423 29020000 		.4byte	.LASF41
 1372 0427 01       		.byte	0x1
 1373 0428 4C01     		.2byte	0x14c
ARM GAS  C:\Users\winstona\AppData\Local\Temp\ccXRDK8a.s 			page 32


 1374 042a 33000000 		.4byte	0x33
 1375 042e 12020000 		.4byte	.LLST5
 1376 0432 11       		.uleb128 0x11
 1377 0433 8C000000 		.4byte	.LASF42
 1378 0437 01       		.byte	0x1
 1379 0438 4E01     		.2byte	0x14e
 1380 043a 33000000 		.4byte	0x33
 1381 043e 67030000 		.4byte	.LLST6
 1382 0442 11       		.uleb128 0x11
 1383 0443 7B050000 		.4byte	.LASF43
 1384 0447 01       		.byte	0x1
 1385 0448 5001     		.2byte	0x150
 1386 044a 33000000 		.4byte	0x33
 1387 044e F2040000 		.4byte	.LLST7
 1388 0452 0F       		.uleb128 0xf
 1389 0453 36010000 		.4byte	.LBB5
 1390 0457 12000000 		.4byte	.LBE5-.LBB5
 1391 045b 6E040000 		.4byte	0x46e
 1392 045f 12       		.uleb128 0x12
 1393 0460 7800     		.ascii	"x\000"
 1394 0462 01       		.byte	0x1
 1395 0463 6301     		.2byte	0x163
 1396 0465 33000000 		.4byte	0x33
 1397 0469 9A050000 		.4byte	.LLST8
 1398 046d 00       		.byte	0
 1399 046e 0D       		.uleb128 0xd
 1400 046f D2000000 		.4byte	.LVL57
 1401 0473 70070000 		.4byte	0x770
 1402 0477 0D       		.uleb128 0xd
 1403 0478 12010000 		.4byte	.LVL69
 1404 047c 70070000 		.4byte	0x770
 1405 0480 00       		.byte	0
 1406 0481 0F       		.uleb128 0xf
 1407 0482 50010000 		.4byte	.LBB6
 1408 0486 2C000000 		.4byte	.LBE6-.LBB6
 1409 048a A8040000 		.4byte	0x4a8
 1410 048e 11       		.uleb128 0x11
 1411 048f 34030000 		.4byte	.LASF40
 1412 0493 01       		.byte	0x1
 1413 0494 6E01     		.2byte	0x16e
 1414 0496 33000000 		.4byte	0x33
 1415 049a 7B060000 		.4byte	.LLST9
 1416 049e 0D       		.uleb128 0xd
 1417 049f 7A010000 		.4byte	.LVL83
 1418 04a3 70070000 		.4byte	0x770
 1419 04a7 00       		.byte	0
 1420 04a8 0D       		.uleb128 0xd
 1421 04a9 AE000000 		.4byte	.LVL53
 1422 04ad 7B070000 		.4byte	0x77b
 1423 04b1 00       		.byte	0
 1424 04b2 0D       		.uleb128 0xd
 1425 04b3 5C000000 		.4byte	.LVL42
 1426 04b7 86070000 		.4byte	0x786
 1427 04bb 0D       		.uleb128 0xd
 1428 04bc 60000000 		.4byte	.LVL43
 1429 04c0 91070000 		.4byte	0x791
 1430 04c4 0D       		.uleb128 0xd
ARM GAS  C:\Users\winstona\AppData\Local\Temp\ccXRDK8a.s 			page 33


 1431 04c5 66000000 		.4byte	.LVL44
 1432 04c9 9D070000 		.4byte	0x79d
 1433 04cd 0D       		.uleb128 0xd
 1434 04ce 6C000000 		.4byte	.LVL45
 1435 04d2 A9070000 		.4byte	0x7a9
 1436 04d6 0D       		.uleb128 0xd
 1437 04d7 70000000 		.4byte	.LVL46
 1438 04db B4070000 		.4byte	0x7b4
 1439 04df 0A       		.uleb128 0xa
 1440 04e0 7A000000 		.4byte	.LVL47
 1441 04e4 BF070000 		.4byte	0x7bf
 1442 04e8 F6040000 		.4byte	0x4f6
 1443 04ec 0B       		.uleb128 0xb
 1444 04ed 01       		.uleb128 0x1
 1445 04ee 50       		.byte	0x50
 1446 04ef 05       		.uleb128 0x5
 1447 04f0 03       		.byte	0x3
 1448 04f1 00000000 		.4byte	.LC0
 1449 04f5 00       		.byte	0
 1450 04f6 0D       		.uleb128 0xd
 1451 04f7 92010000 		.4byte	.LVL86
 1452 04fb 70070000 		.4byte	0x770
 1453 04ff 00       		.byte	0
 1454 0500 0A       		.uleb128 0xa
 1455 0501 0A000000 		.4byte	.LVL30
 1456 0505 CA070000 		.4byte	0x7ca
 1457 0509 17050000 		.4byte	0x517
 1458 050d 0B       		.uleb128 0xb
 1459 050e 01       		.uleb128 0x1
 1460 050f 50       		.byte	0x50
 1461 0510 05       		.uleb128 0x5
 1462 0511 03       		.byte	0x3
 1463 0512 00000000 		.4byte	RisingEdgeInterruptHandler
 1464 0516 00       		.byte	0
 1465 0517 0A       		.uleb128 0xa
 1466 0518 10000000 		.4byte	.LVL31
 1467 051c D5070000 		.4byte	0x7d5
 1468 0520 2E050000 		.4byte	0x52e
 1469 0524 0B       		.uleb128 0xb
 1470 0525 01       		.uleb128 0x1
 1471 0526 50       		.byte	0x50
 1472 0527 05       		.uleb128 0x5
 1473 0528 03       		.byte	0x3
 1474 0529 00000000 		.4byte	FallingEdgeInterruptHandler
 1475 052d 00       		.byte	0
 1476 052e 0A       		.uleb128 0xa
 1477 052f 16000000 		.4byte	.LVL32
 1478 0533 E0070000 		.4byte	0x7e0
 1479 0537 45050000 		.4byte	0x545
 1480 053b 0B       		.uleb128 0xb
 1481 053c 01       		.uleb128 0x1
 1482 053d 50       		.byte	0x50
 1483 053e 05       		.uleb128 0x5
 1484 053f 03       		.byte	0x3
 1485 0540 00000000 		.4byte	ReceiveInterruptHandler
 1486 0544 00       		.byte	0
 1487 0545 0A       		.uleb128 0xa
ARM GAS  C:\Users\winstona\AppData\Local\Temp\ccXRDK8a.s 			page 34


 1488 0546 20000000 		.4byte	.LVL33
 1489 054a EB070000 		.4byte	0x7eb
 1490 054e 58050000 		.4byte	0x558
 1491 0552 0B       		.uleb128 0xb
 1492 0553 01       		.uleb128 0x1
 1493 0554 51       		.byte	0x51
 1494 0555 01       		.uleb128 0x1
 1495 0556 31       		.byte	0x31
 1496 0557 00       		.byte	0
 1497 0558 0D       		.uleb128 0xd
 1498 0559 24000000 		.4byte	.LVL34
 1499 055d 9D070000 		.4byte	0x79d
 1500 0561 0D       		.uleb128 0xd
 1501 0562 2C000000 		.4byte	.LVL35
 1502 0566 A9070000 		.4byte	0x7a9
 1503 056a 0D       		.uleb128 0xd
 1504 056b 30000000 		.4byte	.LVL36
 1505 056f 86070000 		.4byte	0x786
 1506 0573 0D       		.uleb128 0xd
 1507 0574 3A000000 		.4byte	.LVL37
 1508 0578 91070000 		.4byte	0x791
 1509 057c 0D       		.uleb128 0xd
 1510 057d 42000000 		.4byte	.LVL38
 1511 0581 9D070000 		.4byte	0x79d
 1512 0585 0D       		.uleb128 0xd
 1513 0586 4A000000 		.4byte	.LVL39
 1514 058a A9070000 		.4byte	0x7a9
 1515 058e 0D       		.uleb128 0xd
 1516 058f 4E000000 		.4byte	.LVL40
 1517 0593 B4070000 		.4byte	0x7b4
 1518 0597 0C       		.uleb128 0xc
 1519 0598 58000000 		.4byte	.LVL41
 1520 059c 70070000 		.4byte	0x770
 1521 05a0 0B       		.uleb128 0xb
 1522 05a1 01       		.uleb128 0x1
 1523 05a2 50       		.byte	0x50
 1524 05a3 02       		.uleb128 0x2
 1525 05a4 08       		.byte	0x8
 1526 05a5 21       		.byte	0x21
 1527 05a6 00       		.byte	0
 1528 05a7 00       		.byte	0
 1529 05a8 02       		.uleb128 0x2
 1530 05a9 01       		.byte	0x1
 1531 05aa 02       		.byte	0x2
 1532 05ab 41030000 		.4byte	.LASF44
 1533 05af 13       		.uleb128 0x13
 1534 05b0 AF010000 		.4byte	.LASF45
 1535 05b4 05       		.byte	0x5
 1536 05b5 D602     		.2byte	0x2d6
 1537 05b7 DA000000 		.4byte	0xda
 1538 05bb 13       		.uleb128 0x13
 1539 05bc 74010000 		.4byte	.LASF46
 1540 05c0 06       		.byte	0x6
 1541 05c1 1207     		.2byte	0x712
 1542 05c3 C7050000 		.4byte	0x5c7
 1543 05c7 06       		.uleb128 0x6
 1544 05c8 A2000000 		.4byte	0xa2
ARM GAS  C:\Users\winstona\AppData\Local\Temp\ccXRDK8a.s 			page 35


 1545 05cc 14       		.uleb128 0x14
 1546 05cd 1D020000 		.4byte	.LASF47
 1547 05d1 01       		.byte	0x1
 1548 05d2 31       		.byte	0x31
 1549 05d3 0C010000 		.4byte	0x10c
 1550 05d7 05       		.uleb128 0x5
 1551 05d8 03       		.byte	0x3
 1552 05d9 00000000 		.4byte	systemState
 1553 05dd 14       		.uleb128 0x14
 1554 05de 52040000 		.4byte	.LASF48
 1555 05e2 01       		.byte	0x1
 1556 05e3 33       		.byte	0x33
 1557 05e4 A8050000 		.4byte	0x5a8
 1558 05e8 05       		.uleb128 0x5
 1559 05e9 03       		.byte	0x3
 1560 05ea 00000000 		.4byte	logicLevel
 1561 05ee 14       		.uleb128 0x14
 1562 05ef 2C010000 		.4byte	.LASF49
 1563 05f3 01       		.byte	0x1
 1564 05f4 34       		.byte	0x34
 1565 05f5 C7000000 		.4byte	0xc7
 1566 05f9 05       		.uleb128 0x5
 1567 05fa 03       		.byte	0x3
 1568 05fb 00000000 		.4byte	currentDataCharacter
 1569 05ff 14       		.uleb128 0x14
 1570 0600 2F000000 		.4byte	.LASF50
 1571 0604 01       		.byte	0x1
 1572 0605 35       		.byte	0x35
 1573 0606 33000000 		.4byte	0x33
 1574 060a 05       		.uleb128 0x5
 1575 060b 03       		.byte	0x3
 1576 060c 00000000 		.4byte	bufferPosition
 1577 0610 15       		.uleb128 0x15
 1578 0611 4C000000 		.4byte	0x4c
 1579 0615 21060000 		.4byte	0x621
 1580 0619 16       		.uleb128 0x16
 1581 061a E6000000 		.4byte	0xe6
 1582 061e F301     		.2byte	0x1f3
 1583 0620 00       		.byte	0
 1584 0621 14       		.uleb128 0x14
 1585 0622 9A030000 		.4byte	.LASF51
 1586 0626 01       		.byte	0x1
 1587 0627 36       		.byte	0x36
 1588 0628 10060000 		.4byte	0x610
 1589 062c 05       		.uleb128 0x5
 1590 062d 03       		.byte	0x3
 1591 062e 00000000 		.4byte	buffer
 1592 0632 15       		.uleb128 0x15
 1593 0633 4C000000 		.4byte	0x4c
 1594 0637 42060000 		.4byte	0x642
 1595 063b 17       		.uleb128 0x17
 1596 063c E6000000 		.4byte	0xe6
 1597 0640 0F       		.byte	0xf
 1598 0641 00       		.byte	0
 1599 0642 14       		.uleb128 0x14
 1600 0643 7E030000 		.4byte	.LASF52
 1601 0647 01       		.byte	0x1
ARM GAS  C:\Users\winstona\AppData\Local\Temp\ccXRDK8a.s 			page 36


 1602 0648 39       		.byte	0x39
 1603 0649 32060000 		.4byte	0x632
 1604 064d 05       		.uleb128 0x5
 1605 064e 03       		.byte	0x3
 1606 064f 00000000 		.4byte	data
 1607 0653 14       		.uleb128 0x14
 1608 0654 DF000000 		.4byte	.LASF53
 1609 0658 01       		.byte	0x1
 1610 0659 3B       		.byte	0x3b
 1611 065a 33000000 		.4byte	0x33
 1612 065e 05       		.uleb128 0x5
 1613 065f 03       		.byte	0x3
 1614 0660 00000000 		.4byte	dataSize
 1615 0664 14       		.uleb128 0x14
 1616 0665 DC020000 		.4byte	.LASF54
 1617 0669 01       		.byte	0x1
 1618 066a 3E       		.byte	0x3e
 1619 066b 33000000 		.4byte	0x33
 1620 066f 05       		.uleb128 0x5
 1621 0670 03       		.byte	0x3
 1622 0671 00000000 		.4byte	symbolPosition
 1623 0675 14       		.uleb128 0x14
 1624 0676 5D040000 		.4byte	.LASF55
 1625 067a 01       		.byte	0x1
 1626 067b 40       		.byte	0x40
 1627 067c 33000000 		.4byte	0x33
 1628 0680 05       		.uleb128 0x5
 1629 0681 03       		.byte	0x3
 1630 0682 00000000 		.4byte	count
 1631 0686 18       		.uleb128 0x18
 1632 0687 69647800 		.ascii	"idx\000"
 1633 068b 01       		.byte	0x1
 1634 068c 43       		.byte	0x43
 1635 068d 33000000 		.4byte	0x33
 1636 0691 05       		.uleb128 0x5
 1637 0692 03       		.byte	0x3
 1638 0693 00000000 		.4byte	idx
 1639 0697 14       		.uleb128 0x14
 1640 0698 FF010000 		.4byte	.LASF56
 1641 069c 01       		.byte	0x1
 1642 069d 49       		.byte	0x49
 1643 069e 8C000000 		.4byte	0x8c
 1644 06a2 05       		.uleb128 0x5
 1645 06a3 03       		.byte	0x3
 1646 06a4 00000000 		.4byte	rxBit
 1647 06a8 14       		.uleb128 0x14
 1648 06a9 9E000000 		.4byte	.LASF57
 1649 06ad 01       		.byte	0x1
 1650 06ae 4C       		.byte	0x4c
 1651 06af 3C010000 		.4byte	0x13c
 1652 06b3 05       		.uleb128 0x5
 1653 06b4 03       		.byte	0x3
 1654 06b5 00000000 		.4byte	edgeDataStatus
 1655 06b9 14       		.uleb128 0x14
 1656 06ba A3010000 		.4byte	.LASF58
 1657 06be 01       		.byte	0x1
 1658 06bf 4D       		.byte	0x4d
ARM GAS  C:\Users\winstona\AppData\Local\Temp\ccXRDK8a.s 			page 37


 1659 06c0 97000000 		.4byte	0x97
 1660 06c4 05       		.uleb128 0x5
 1661 06c5 03       		.byte	0x3
 1662 06c6 00000000 		.4byte	lastCapture
 1663 06ca 14       		.uleb128 0x14
 1664 06cb E2040000 		.4byte	.LASF59
 1665 06cf 01       		.byte	0x1
 1666 06d0 52       		.byte	0x52
 1667 06d1 C7000000 		.4byte	0xc7
 1668 06d5 05       		.uleb128 0x5
 1669 06d6 03       		.byte	0x3
 1670 06d7 00000000 		.4byte	currRxChar
 1671 06db 14       		.uleb128 0x14
 1672 06dc CF020000 		.4byte	.LASF60
 1673 06e0 01       		.byte	0x1
 1674 06e1 53       		.byte	0x53
 1675 06e2 A8050000 		.4byte	0x5a8
 1676 06e6 05       		.uleb128 0x5
 1677 06e7 03       		.byte	0x3
 1678 06e8 00000000 		.4byte	timerWrapped
 1679 06ec 19       		.uleb128 0x19
 1680 06ed DC030000 		.4byte	.LASF61
 1681 06f1 DC030000 		.4byte	.LASF61
 1682 06f5 07       		.byte	0x7
 1683 06f6 26       		.byte	0x26
 1684 06f7 19       		.uleb128 0x19
 1685 06f8 4F030000 		.4byte	.LASF62
 1686 06fc 4F030000 		.4byte	.LASF62
 1687 0700 08       		.byte	0x8
 1688 0701 26       		.byte	0x26
 1689 0702 19       		.uleb128 0x19
 1690 0703 E8000000 		.4byte	.LASF63
 1691 0707 E8000000 		.4byte	.LASF63
 1692 070b 09       		.byte	0x9
 1693 070c 26       		.byte	0x26
 1694 070d 19       		.uleb128 0x19
 1695 070e 1C040000 		.4byte	.LASF64
 1696 0712 1C040000 		.4byte	.LASF64
 1697 0716 0A       		.byte	0xa
 1698 0717 28       		.byte	0x28
 1699 0718 19       		.uleb128 0x19
 1700 0719 9A040000 		.4byte	.LASF65
 1701 071d 9A040000 		.4byte	.LASF65
 1702 0721 0B       		.byte	0xb
 1703 0722 8E       		.byte	0x8e
 1704 0723 19       		.uleb128 0x19
 1705 0724 BD000000 		.4byte	.LASF66
 1706 0728 BD000000 		.4byte	.LASF66
 1707 072c 0B       		.byte	0xb
 1708 072d 69       		.byte	0x69
 1709 072e 19       		.uleb128 0x19
 1710 072f 5A030000 		.4byte	.LASF67
 1711 0733 5A030000 		.4byte	.LASF67
 1712 0737 0B       		.byte	0xb
 1713 0738 68       		.byte	0x68
 1714 0739 19       		.uleb128 0x19
 1715 073a CD040000 		.4byte	.LASF68
ARM GAS  C:\Users\winstona\AppData\Local\Temp\ccXRDK8a.s 			page 38


 1716 073e CD040000 		.4byte	.LASF68
 1717 0742 0B       		.byte	0xb
 1718 0743 6A       		.byte	0x6a
 1719 0744 19       		.uleb128 0x19
 1720 0745 A8040000 		.4byte	.LASF69
 1721 0749 A8040000 		.4byte	.LASF69
 1722 074d 0B       		.byte	0xb
 1723 074e 5A       		.byte	0x5a
 1724 074f 19       		.uleb128 0x19
 1725 0750 A1030000 		.4byte	.LASF70
 1726 0754 A1030000 		.4byte	.LASF70
 1727 0758 0C       		.byte	0xc
 1728 0759 28       		.byte	0x28
 1729 075a 19       		.uleb128 0x19
 1730 075b 78040000 		.4byte	.LASF71
 1731 075f 78040000 		.4byte	.LASF71
 1732 0763 0D       		.byte	0xd
 1733 0764 26       		.byte	0x26
 1734 0765 19       		.uleb128 0x19
 1735 0766 05020000 		.4byte	.LASF72
 1736 076a 05020000 		.4byte	.LASF72
 1737 076e 0E       		.byte	0xe
 1738 076f 77       		.byte	0x77
 1739 0770 19       		.uleb128 0x19
 1740 0771 6E030000 		.4byte	.LASF73
 1741 0775 6E030000 		.4byte	.LASF73
 1742 0779 0F       		.byte	0xf
 1743 077a 25       		.byte	0x25
 1744 077b 19       		.uleb128 0x19
 1745 077c EB020000 		.4byte	.LASF74
 1746 0780 EB020000 		.4byte	.LASF74
 1747 0784 0B       		.byte	0xb
 1748 0785 86       		.byte	0x86
 1749 0786 19       		.uleb128 0x19
 1750 0787 87040000 		.4byte	.LASF75
 1751 078b 87040000 		.4byte	.LASF75
 1752 078f 0F       		.byte	0xf
 1753 0790 2E       		.byte	0x2e
 1754 0791 1A       		.uleb128 0x1a
 1755 0792 BD030000 		.4byte	.LASF76
 1756 0796 BD030000 		.4byte	.LASF76
 1757 079a 05       		.byte	0x5
 1758 079b 3201     		.2byte	0x132
 1759 079d 1A       		.uleb128 0x1a
 1760 079e 47010000 		.4byte	.LASF77
 1761 07a2 47010000 		.4byte	.LASF77
 1762 07a6 05       		.byte	0x5
 1763 07a7 3101     		.2byte	0x131
 1764 07a9 19       		.uleb128 0x19
 1765 07aa BC040000 		.4byte	.LASF78
 1766 07ae BC040000 		.4byte	.LASF78
 1767 07b2 0F       		.byte	0xf
 1768 07b3 22       		.byte	0x22
 1769 07b4 19       		.uleb128 0x19
 1770 07b5 12000000 		.4byte	.LASF79
 1771 07b9 12000000 		.4byte	.LASF79
 1772 07bd 0F       		.byte	0xf
ARM GAS  C:\Users\winstona\AppData\Local\Temp\ccXRDK8a.s 			page 39


 1773 07be 28       		.byte	0x28
 1774 07bf 19       		.uleb128 0x19
 1775 07c0 1A010000 		.4byte	.LASF80
 1776 07c4 1A010000 		.4byte	.LASF80
 1777 07c8 0F       		.byte	0xf
 1778 07c9 24       		.byte	0x24
 1779 07ca 19       		.uleb128 0x19
 1780 07cb 3E000000 		.4byte	.LASF81
 1781 07cf 3E000000 		.4byte	.LASF81
 1782 07d3 0A       		.byte	0xa
 1783 07d4 18       		.byte	0x18
 1784 07d5 19       		.uleb128 0x19
 1785 07d6 83030000 		.4byte	.LASF82
 1786 07da 83030000 		.4byte	.LASF82
 1787 07de 0C       		.byte	0xc
 1788 07df 18       		.byte	0x18
 1789 07e0 19       		.uleb128 0x19
 1790 07e1 0E030000 		.4byte	.LASF83
 1791 07e5 0E030000 		.4byte	.LASF83
 1792 07e9 10       		.byte	0x10
 1793 07ea 18       		.byte	0x18
 1794 07eb 1A       		.uleb128 0x1a
 1795 07ec D1000000 		.4byte	.LASF84
 1796 07f0 D1000000 		.4byte	.LASF84
 1797 07f4 05       		.byte	0x5
 1798 07f5 2E01     		.2byte	0x12e
 1799 07f7 00       		.byte	0
 1800              		.section	.debug_abbrev,"",%progbits
 1801              	.Ldebug_abbrev0:
 1802 0000 01       		.uleb128 0x1
 1803 0001 11       		.uleb128 0x11
 1804 0002 01       		.byte	0x1
 1805 0003 25       		.uleb128 0x25
 1806 0004 0E       		.uleb128 0xe
 1807 0005 13       		.uleb128 0x13
 1808 0006 0B       		.uleb128 0xb
 1809 0007 03       		.uleb128 0x3
 1810 0008 0E       		.uleb128 0xe
 1811 0009 1B       		.uleb128 0x1b
 1812 000a 0E       		.uleb128 0xe
 1813 000b 55       		.uleb128 0x55
 1814 000c 17       		.uleb128 0x17
 1815 000d 11       		.uleb128 0x11
 1816 000e 01       		.uleb128 0x1
 1817 000f 10       		.uleb128 0x10
 1818 0010 17       		.uleb128 0x17
 1819 0011 00       		.byte	0
 1820 0012 00       		.byte	0
 1821 0013 02       		.uleb128 0x2
 1822 0014 24       		.uleb128 0x24
 1823 0015 00       		.byte	0
 1824 0016 0B       		.uleb128 0xb
 1825 0017 0B       		.uleb128 0xb
 1826 0018 3E       		.uleb128 0x3e
 1827 0019 0B       		.uleb128 0xb
 1828 001a 03       		.uleb128 0x3
 1829 001b 0E       		.uleb128 0xe
ARM GAS  C:\Users\winstona\AppData\Local\Temp\ccXRDK8a.s 			page 40


 1830 001c 00       		.byte	0
 1831 001d 00       		.byte	0
 1832 001e 03       		.uleb128 0x3
 1833 001f 24       		.uleb128 0x24
 1834 0020 00       		.byte	0
 1835 0021 0B       		.uleb128 0xb
 1836 0022 0B       		.uleb128 0xb
 1837 0023 3E       		.uleb128 0x3e
 1838 0024 0B       		.uleb128 0xb
 1839 0025 03       		.uleb128 0x3
 1840 0026 08       		.uleb128 0x8
 1841 0027 00       		.byte	0
 1842 0028 00       		.byte	0
 1843 0029 04       		.uleb128 0x4
 1844 002a 16       		.uleb128 0x16
 1845 002b 00       		.byte	0
 1846 002c 03       		.uleb128 0x3
 1847 002d 0E       		.uleb128 0xe
 1848 002e 3A       		.uleb128 0x3a
 1849 002f 0B       		.uleb128 0xb
 1850 0030 3B       		.uleb128 0x3b
 1851 0031 0B       		.uleb128 0xb
 1852 0032 49       		.uleb128 0x49
 1853 0033 13       		.uleb128 0x13
 1854 0034 00       		.byte	0
 1855 0035 00       		.byte	0
 1856 0036 05       		.uleb128 0x5
 1857 0037 16       		.uleb128 0x16
 1858 0038 00       		.byte	0
 1859 0039 03       		.uleb128 0x3
 1860 003a 0E       		.uleb128 0xe
 1861 003b 3A       		.uleb128 0x3a
 1862 003c 0B       		.uleb128 0xb
 1863 003d 3B       		.uleb128 0x3b
 1864 003e 05       		.uleb128 0x5
 1865 003f 49       		.uleb128 0x49
 1866 0040 13       		.uleb128 0x13
 1867 0041 00       		.byte	0
 1868 0042 00       		.byte	0
 1869 0043 06       		.uleb128 0x6
 1870 0044 35       		.uleb128 0x35
 1871 0045 00       		.byte	0
 1872 0046 49       		.uleb128 0x49
 1873 0047 13       		.uleb128 0x13
 1874 0048 00       		.byte	0
 1875 0049 00       		.byte	0
 1876 004a 07       		.uleb128 0x7
 1877 004b 04       		.uleb128 0x4
 1878 004c 01       		.byte	0x1
 1879 004d 0B       		.uleb128 0xb
 1880 004e 0B       		.uleb128 0xb
 1881 004f 49       		.uleb128 0x49
 1882 0050 13       		.uleb128 0x13
 1883 0051 3A       		.uleb128 0x3a
 1884 0052 0B       		.uleb128 0xb
 1885 0053 3B       		.uleb128 0x3b
 1886 0054 0B       		.uleb128 0xb
ARM GAS  C:\Users\winstona\AppData\Local\Temp\ccXRDK8a.s 			page 41


 1887 0055 01       		.uleb128 0x1
 1888 0056 13       		.uleb128 0x13
 1889 0057 00       		.byte	0
 1890 0058 00       		.byte	0
 1891 0059 08       		.uleb128 0x8
 1892 005a 28       		.uleb128 0x28
 1893 005b 00       		.byte	0
 1894 005c 03       		.uleb128 0x3
 1895 005d 0E       		.uleb128 0xe
 1896 005e 1C       		.uleb128 0x1c
 1897 005f 0B       		.uleb128 0xb
 1898 0060 00       		.byte	0
 1899 0061 00       		.byte	0
 1900 0062 09       		.uleb128 0x9
 1901 0063 2E       		.uleb128 0x2e
 1902 0064 01       		.byte	0x1
 1903 0065 3F       		.uleb128 0x3f
 1904 0066 19       		.uleb128 0x19
 1905 0067 03       		.uleb128 0x3
 1906 0068 0E       		.uleb128 0xe
 1907 0069 3A       		.uleb128 0x3a
 1908 006a 0B       		.uleb128 0xb
 1909 006b 3B       		.uleb128 0x3b
 1910 006c 0B       		.uleb128 0xb
 1911 006d 27       		.uleb128 0x27
 1912 006e 19       		.uleb128 0x19
 1913 006f 11       		.uleb128 0x11
 1914 0070 01       		.uleb128 0x1
 1915 0071 12       		.uleb128 0x12
 1916 0072 06       		.uleb128 0x6
 1917 0073 40       		.uleb128 0x40
 1918 0074 18       		.uleb128 0x18
 1919 0075 9742     		.uleb128 0x2117
 1920 0077 19       		.uleb128 0x19
 1921 0078 01       		.uleb128 0x1
 1922 0079 13       		.uleb128 0x13
 1923 007a 00       		.byte	0
 1924 007b 00       		.byte	0
 1925 007c 0A       		.uleb128 0xa
 1926 007d 898201   		.uleb128 0x4109
 1927 0080 01       		.byte	0x1
 1928 0081 11       		.uleb128 0x11
 1929 0082 01       		.uleb128 0x1
 1930 0083 31       		.uleb128 0x31
 1931 0084 13       		.uleb128 0x13
 1932 0085 01       		.uleb128 0x1
 1933 0086 13       		.uleb128 0x13
 1934 0087 00       		.byte	0
 1935 0088 00       		.byte	0
 1936 0089 0B       		.uleb128 0xb
 1937 008a 8A8201   		.uleb128 0x410a
 1938 008d 00       		.byte	0
 1939 008e 02       		.uleb128 0x2
 1940 008f 18       		.uleb128 0x18
 1941 0090 9142     		.uleb128 0x2111
 1942 0092 18       		.uleb128 0x18
 1943 0093 00       		.byte	0
ARM GAS  C:\Users\winstona\AppData\Local\Temp\ccXRDK8a.s 			page 42


 1944 0094 00       		.byte	0
 1945 0095 0C       		.uleb128 0xc
 1946 0096 898201   		.uleb128 0x4109
 1947 0099 01       		.byte	0x1
 1948 009a 11       		.uleb128 0x11
 1949 009b 01       		.uleb128 0x1
 1950 009c 31       		.uleb128 0x31
 1951 009d 13       		.uleb128 0x13
 1952 009e 00       		.byte	0
 1953 009f 00       		.byte	0
 1954 00a0 0D       		.uleb128 0xd
 1955 00a1 898201   		.uleb128 0x4109
 1956 00a4 00       		.byte	0
 1957 00a5 11       		.uleb128 0x11
 1958 00a6 01       		.uleb128 0x1
 1959 00a7 31       		.uleb128 0x31
 1960 00a8 13       		.uleb128 0x13
 1961 00a9 00       		.byte	0
 1962 00aa 00       		.byte	0
 1963 00ab 0E       		.uleb128 0xe
 1964 00ac 2E       		.uleb128 0x2e
 1965 00ad 01       		.byte	0x1
 1966 00ae 3F       		.uleb128 0x3f
 1967 00af 19       		.uleb128 0x19
 1968 00b0 03       		.uleb128 0x3
 1969 00b1 0E       		.uleb128 0xe
 1970 00b2 3A       		.uleb128 0x3a
 1971 00b3 0B       		.uleb128 0xb
 1972 00b4 3B       		.uleb128 0x3b
 1973 00b5 0B       		.uleb128 0xb
 1974 00b6 27       		.uleb128 0x27
 1975 00b7 19       		.uleb128 0x19
 1976 00b8 49       		.uleb128 0x49
 1977 00b9 13       		.uleb128 0x13
 1978 00ba 8701     		.uleb128 0x87
 1979 00bc 19       		.uleb128 0x19
 1980 00bd 11       		.uleb128 0x11
 1981 00be 01       		.uleb128 0x1
 1982 00bf 12       		.uleb128 0x12
 1983 00c0 06       		.uleb128 0x6
 1984 00c1 40       		.uleb128 0x40
 1985 00c2 18       		.uleb128 0x18
 1986 00c3 9742     		.uleb128 0x2117
 1987 00c5 19       		.uleb128 0x19
 1988 00c6 01       		.uleb128 0x1
 1989 00c7 13       		.uleb128 0x13
 1990 00c8 00       		.byte	0
 1991 00c9 00       		.byte	0
 1992 00ca 0F       		.uleb128 0xf
 1993 00cb 0B       		.uleb128 0xb
 1994 00cc 01       		.byte	0x1
 1995 00cd 11       		.uleb128 0x11
 1996 00ce 01       		.uleb128 0x1
 1997 00cf 12       		.uleb128 0x12
 1998 00d0 06       		.uleb128 0x6
 1999 00d1 01       		.uleb128 0x1
 2000 00d2 13       		.uleb128 0x13
ARM GAS  C:\Users\winstona\AppData\Local\Temp\ccXRDK8a.s 			page 43


 2001 00d3 00       		.byte	0
 2002 00d4 00       		.byte	0
 2003 00d5 10       		.uleb128 0x10
 2004 00d6 34       		.uleb128 0x34
 2005 00d7 00       		.byte	0
 2006 00d8 03       		.uleb128 0x3
 2007 00d9 0E       		.uleb128 0xe
 2008 00da 3A       		.uleb128 0x3a
 2009 00db 0B       		.uleb128 0xb
 2010 00dc 3B       		.uleb128 0x3b
 2011 00dd 05       		.uleb128 0x5
 2012 00de 49       		.uleb128 0x49
 2013 00df 13       		.uleb128 0x13
 2014 00e0 1C       		.uleb128 0x1c
 2015 00e1 0B       		.uleb128 0xb
 2016 00e2 00       		.byte	0
 2017 00e3 00       		.byte	0
 2018 00e4 11       		.uleb128 0x11
 2019 00e5 34       		.uleb128 0x34
 2020 00e6 00       		.byte	0
 2021 00e7 03       		.uleb128 0x3
 2022 00e8 0E       		.uleb128 0xe
 2023 00e9 3A       		.uleb128 0x3a
 2024 00ea 0B       		.uleb128 0xb
 2025 00eb 3B       		.uleb128 0x3b
 2026 00ec 05       		.uleb128 0x5
 2027 00ed 49       		.uleb128 0x49
 2028 00ee 13       		.uleb128 0x13
 2029 00ef 02       		.uleb128 0x2
 2030 00f0 17       		.uleb128 0x17
 2031 00f1 00       		.byte	0
 2032 00f2 00       		.byte	0
 2033 00f3 12       		.uleb128 0x12
 2034 00f4 34       		.uleb128 0x34
 2035 00f5 00       		.byte	0
 2036 00f6 03       		.uleb128 0x3
 2037 00f7 08       		.uleb128 0x8
 2038 00f8 3A       		.uleb128 0x3a
 2039 00f9 0B       		.uleb128 0xb
 2040 00fa 3B       		.uleb128 0x3b
 2041 00fb 05       		.uleb128 0x5
 2042 00fc 49       		.uleb128 0x49
 2043 00fd 13       		.uleb128 0x13
 2044 00fe 02       		.uleb128 0x2
 2045 00ff 17       		.uleb128 0x17
 2046 0100 00       		.byte	0
 2047 0101 00       		.byte	0
 2048 0102 13       		.uleb128 0x13
 2049 0103 34       		.uleb128 0x34
 2050 0104 00       		.byte	0
 2051 0105 03       		.uleb128 0x3
 2052 0106 0E       		.uleb128 0xe
 2053 0107 3A       		.uleb128 0x3a
 2054 0108 0B       		.uleb128 0xb
 2055 0109 3B       		.uleb128 0x3b
 2056 010a 05       		.uleb128 0x5
 2057 010b 49       		.uleb128 0x49
ARM GAS  C:\Users\winstona\AppData\Local\Temp\ccXRDK8a.s 			page 44


 2058 010c 13       		.uleb128 0x13
 2059 010d 3F       		.uleb128 0x3f
 2060 010e 19       		.uleb128 0x19
 2061 010f 3C       		.uleb128 0x3c
 2062 0110 19       		.uleb128 0x19
 2063 0111 00       		.byte	0
 2064 0112 00       		.byte	0
 2065 0113 14       		.uleb128 0x14
 2066 0114 34       		.uleb128 0x34
 2067 0115 00       		.byte	0
 2068 0116 03       		.uleb128 0x3
 2069 0117 0E       		.uleb128 0xe
 2070 0118 3A       		.uleb128 0x3a
 2071 0119 0B       		.uleb128 0xb
 2072 011a 3B       		.uleb128 0x3b
 2073 011b 0B       		.uleb128 0xb
 2074 011c 49       		.uleb128 0x49
 2075 011d 13       		.uleb128 0x13
 2076 011e 3F       		.uleb128 0x3f
 2077 011f 19       		.uleb128 0x19
 2078 0120 02       		.uleb128 0x2
 2079 0121 18       		.uleb128 0x18
 2080 0122 00       		.byte	0
 2081 0123 00       		.byte	0
 2082 0124 15       		.uleb128 0x15
 2083 0125 01       		.uleb128 0x1
 2084 0126 01       		.byte	0x1
 2085 0127 49       		.uleb128 0x49
 2086 0128 13       		.uleb128 0x13
 2087 0129 01       		.uleb128 0x1
 2088 012a 13       		.uleb128 0x13
 2089 012b 00       		.byte	0
 2090 012c 00       		.byte	0
 2091 012d 16       		.uleb128 0x16
 2092 012e 21       		.uleb128 0x21
 2093 012f 00       		.byte	0
 2094 0130 49       		.uleb128 0x49
 2095 0131 13       		.uleb128 0x13
 2096 0132 2F       		.uleb128 0x2f
 2097 0133 05       		.uleb128 0x5
 2098 0134 00       		.byte	0
 2099 0135 00       		.byte	0
 2100 0136 17       		.uleb128 0x17
 2101 0137 21       		.uleb128 0x21
 2102 0138 00       		.byte	0
 2103 0139 49       		.uleb128 0x49
 2104 013a 13       		.uleb128 0x13
 2105 013b 2F       		.uleb128 0x2f
 2106 013c 0B       		.uleb128 0xb
 2107 013d 00       		.byte	0
 2108 013e 00       		.byte	0
 2109 013f 18       		.uleb128 0x18
 2110 0140 34       		.uleb128 0x34
 2111 0141 00       		.byte	0
 2112 0142 03       		.uleb128 0x3
 2113 0143 08       		.uleb128 0x8
 2114 0144 3A       		.uleb128 0x3a
ARM GAS  C:\Users\winstona\AppData\Local\Temp\ccXRDK8a.s 			page 45


 2115 0145 0B       		.uleb128 0xb
 2116 0146 3B       		.uleb128 0x3b
 2117 0147 0B       		.uleb128 0xb
 2118 0148 49       		.uleb128 0x49
 2119 0149 13       		.uleb128 0x13
 2120 014a 3F       		.uleb128 0x3f
 2121 014b 19       		.uleb128 0x19
 2122 014c 02       		.uleb128 0x2
 2123 014d 18       		.uleb128 0x18
 2124 014e 00       		.byte	0
 2125 014f 00       		.byte	0
 2126 0150 19       		.uleb128 0x19
 2127 0151 2E       		.uleb128 0x2e
 2128 0152 00       		.byte	0
 2129 0153 3F       		.uleb128 0x3f
 2130 0154 19       		.uleb128 0x19
 2131 0155 3C       		.uleb128 0x3c
 2132 0156 19       		.uleb128 0x19
 2133 0157 6E       		.uleb128 0x6e
 2134 0158 0E       		.uleb128 0xe
 2135 0159 03       		.uleb128 0x3
 2136 015a 0E       		.uleb128 0xe
 2137 015b 3A       		.uleb128 0x3a
 2138 015c 0B       		.uleb128 0xb
 2139 015d 3B       		.uleb128 0x3b
 2140 015e 0B       		.uleb128 0xb
 2141 015f 00       		.byte	0
 2142 0160 00       		.byte	0
 2143 0161 1A       		.uleb128 0x1a
 2144 0162 2E       		.uleb128 0x2e
 2145 0163 00       		.byte	0
 2146 0164 3F       		.uleb128 0x3f
 2147 0165 19       		.uleb128 0x19
 2148 0166 3C       		.uleb128 0x3c
 2149 0167 19       		.uleb128 0x19
 2150 0168 6E       		.uleb128 0x6e
 2151 0169 0E       		.uleb128 0xe
 2152 016a 03       		.uleb128 0x3
 2153 016b 0E       		.uleb128 0xe
 2154 016c 3A       		.uleb128 0x3a
 2155 016d 0B       		.uleb128 0xb
 2156 016e 3B       		.uleb128 0x3b
 2157 016f 05       		.uleb128 0x5
 2158 0170 00       		.byte	0
 2159 0171 00       		.byte	0
 2160 0172 00       		.byte	0
 2161              		.section	.debug_loc,"",%progbits
 2162              	.Ldebug_loc0:
 2163              	.LLST0:
 2164 0000 7E000000 		.4byte	.LVL48
 2165 0004 AD000000 		.4byte	.LVL53-1
 2166 0008 0100     		.2byte	0x1
 2167 000a 53       		.byte	0x53
 2168 000b B0000000 		.4byte	.LVL54
 2169 000f C8000000 		.4byte	.LVL56
 2170 0013 0100     		.2byte	0x1
 2171 0015 53       		.byte	0x53
ARM GAS  C:\Users\winstona\AppData\Local\Temp\ccXRDK8a.s 			page 46


 2172 0016 C8000000 		.4byte	.LVL56
 2173 001a D1000000 		.4byte	.LVL57-1
 2174 001e 0500     		.2byte	0x5
 2175 0020 03       		.byte	0x3
 2176 0021 00000000 		.4byte	systemState
 2177 0025 D8000000 		.4byte	.LVL58
 2178 0029 08010000 		.4byte	.LVL67
 2179 002d 0100     		.2byte	0x1
 2180 002f 53       		.byte	0x53
 2181 0030 08010000 		.4byte	.LVL67
 2182 0034 11010000 		.4byte	.LVL69-1
 2183 0038 0500     		.2byte	0x5
 2184 003a 03       		.byte	0x3
 2185 003b 00000000 		.4byte	systemState
 2186 003f 18010000 		.4byte	.LVL70
 2187 0043 4C010000 		.4byte	.LVL77
 2188 0047 0100     		.2byte	0x1
 2189 0049 53       		.byte	0x53
 2190 004a 4C010000 		.4byte	.LVL77
 2191 004e 50010000 		.4byte	.LVL78
 2192 0052 0500     		.2byte	0x5
 2193 0054 03       		.byte	0x3
 2194 0055 00000000 		.4byte	systemState
 2195 0059 50010000 		.4byte	.LVL78
 2196 005d 62010000 		.4byte	.LVL80
 2197 0061 0100     		.2byte	0x1
 2198 0063 53       		.byte	0x53
 2199 0064 62010000 		.4byte	.LVL80
 2200 0068 79010000 		.4byte	.LVL83-1
 2201 006c 0500     		.2byte	0x5
 2202 006e 03       		.byte	0x3
 2203 006f 00000000 		.4byte	systemState
 2204 0073 7C010000 		.4byte	.LVL84
 2205 0077 82010000 		.4byte	.LVL85
 2206 007b 0100     		.2byte	0x1
 2207 007d 53       		.byte	0x53
 2208 007e 82010000 		.4byte	.LVL85
 2209 0082 91010000 		.4byte	.LVL86-1
 2210 0086 0500     		.2byte	0x5
 2211 0088 03       		.byte	0x3
 2212 0089 00000000 		.4byte	systemState
 2213 008d 9E010000 		.4byte	.LVL87
 2214 0091 A2010000 		.4byte	.LVL88
 2215 0095 0100     		.2byte	0x1
 2216 0097 53       		.byte	0x53
 2217 0098 A2010000 		.4byte	.LVL88
 2218 009c D8010000 		.4byte	.LFE68
 2219 00a0 0500     		.2byte	0x5
 2220 00a2 03       		.byte	0x3
 2221 00a3 00000000 		.4byte	systemState
 2222 00a7 00000000 		.4byte	0
 2223 00ab 00000000 		.4byte	0
 2224              	.LLST1:
 2225 00af 8E000000 		.4byte	.LVL49
 2226 00b3 E8000000 		.4byte	.LVL61
 2227 00b7 0100     		.2byte	0x1
 2228 00b9 55       		.byte	0x55
ARM GAS  C:\Users\winstona\AppData\Local\Temp\ccXRDK8a.s 			page 47


 2229 00ba E8000000 		.4byte	.LVL61
 2230 00be 11010000 		.4byte	.LVL69-1
 2231 00c2 0500     		.2byte	0x5
 2232 00c4 03       		.byte	0x3
 2233 00c5 00000000 		.4byte	timerWrapped
 2234 00c9 18010000 		.4byte	.LVL70
 2235 00cd 50010000 		.4byte	.LVL78
 2236 00d1 0500     		.2byte	0x5
 2237 00d3 03       		.byte	0x3
 2238 00d4 00000000 		.4byte	timerWrapped
 2239 00d8 50010000 		.4byte	.LVL78
 2240 00dc 7C010000 		.4byte	.LVL84
 2241 00e0 0100     		.2byte	0x1
 2242 00e2 55       		.byte	0x55
 2243 00e3 00000000 		.4byte	0
 2244 00e7 00000000 		.4byte	0
 2245              	.LLST2:
 2246 00eb 8E000000 		.4byte	.LVL49
 2247 00ef A4000000 		.4byte	.LVL52
 2248 00f3 0100     		.2byte	0x1
 2249 00f5 52       		.byte	0x52
 2250 00f6 A4000000 		.4byte	.LVL52
 2251 00fa AD000000 		.4byte	.LVL53-1
 2252 00fe 0500     		.2byte	0x5
 2253 0100 03       		.byte	0x3
 2254 0101 00000000 		.4byte	edgeDataStatus
 2255 0105 B0000000 		.4byte	.LVL54
 2256 0109 B6000000 		.4byte	.LVL55
 2257 010d 0100     		.2byte	0x1
 2258 010f 52       		.byte	0x52
 2259 0110 B6000000 		.4byte	.LVL55
 2260 0114 D1000000 		.4byte	.LVL57-1
 2261 0118 0500     		.2byte	0x5
 2262 011a 03       		.byte	0x3
 2263 011b 00000000 		.4byte	edgeDataStatus
 2264 011f D8000000 		.4byte	.LVL58
 2265 0123 11010000 		.4byte	.LVL69-1
 2266 0127 0500     		.2byte	0x5
 2267 0129 03       		.byte	0x3
 2268 012a 00000000 		.4byte	edgeDataStatus
 2269 012e 18010000 		.4byte	.LVL70
 2270 0132 50010000 		.4byte	.LVL78
 2271 0136 0500     		.2byte	0x5
 2272 0138 03       		.byte	0x3
 2273 0139 00000000 		.4byte	edgeDataStatus
 2274 013d 50010000 		.4byte	.LVL78
 2275 0141 64010000 		.4byte	.LVL81
 2276 0145 0100     		.2byte	0x1
 2277 0147 52       		.byte	0x52
 2278 0148 64010000 		.4byte	.LVL81
 2279 014c 79010000 		.4byte	.LVL83-1
 2280 0150 0500     		.2byte	0x5
 2281 0152 03       		.byte	0x3
 2282 0153 00000000 		.4byte	edgeDataStatus
 2283 0157 00000000 		.4byte	0
 2284 015b 00000000 		.4byte	0
 2285              	.LLST3:
ARM GAS  C:\Users\winstona\AppData\Local\Temp\ccXRDK8a.s 			page 48


 2286 015f 92000000 		.4byte	.LVL50
 2287 0163 9E000000 		.4byte	.LVL51
 2288 0167 0100     		.2byte	0x1
 2289 0169 51       		.byte	0x51
 2290 016a 9E000000 		.4byte	.LVL51
 2291 016e AD000000 		.4byte	.LVL53-1
 2292 0172 0500     		.2byte	0x5
 2293 0174 03       		.byte	0x3
 2294 0175 00000000 		.4byte	lastCapture
 2295 0179 B0000000 		.4byte	.LVL54
 2296 017d D1000000 		.4byte	.LVL57-1
 2297 0181 0100     		.2byte	0x1
 2298 0183 51       		.byte	0x51
 2299 0184 D8000000 		.4byte	.LVL58
 2300 0188 DC000000 		.4byte	.LVL59
 2301 018c 0100     		.2byte	0x1
 2302 018e 51       		.byte	0x51
 2303 018f DC000000 		.4byte	.LVL59
 2304 0193 11010000 		.4byte	.LVL69-1
 2305 0197 0500     		.2byte	0x5
 2306 0199 03       		.byte	0x3
 2307 019a 00000000 		.4byte	lastCapture
 2308 019e 18010000 		.4byte	.LVL70
 2309 01a2 50010000 		.4byte	.LVL78
 2310 01a6 0500     		.2byte	0x5
 2311 01a8 03       		.byte	0x3
 2312 01a9 00000000 		.4byte	lastCapture
 2313 01ad 50010000 		.4byte	.LVL78
 2314 01b1 54010000 		.4byte	.LVL79
 2315 01b5 0100     		.2byte	0x1
 2316 01b7 51       		.byte	0x51
 2317 01b8 54010000 		.4byte	.LVL79
 2318 01bc 79010000 		.4byte	.LVL83-1
 2319 01c0 0500     		.2byte	0x5
 2320 01c2 03       		.byte	0x3
 2321 01c3 00000000 		.4byte	lastCapture
 2322 01c7 00000000 		.4byte	0
 2323 01cb 00000000 		.4byte	0
 2324              	.LLST4:
 2325 01cf DE000000 		.4byte	.LVL60
 2326 01d3 11010000 		.4byte	.LVL69-1
 2327 01d7 0100     		.2byte	0x1
 2328 01d9 51       		.byte	0x51
 2329 01da 18010000 		.4byte	.LVL70
 2330 01de 38010000 		.4byte	.LVL75
 2331 01e2 0100     		.2byte	0x1
 2332 01e4 51       		.byte	0x51
 2333 01e5 38010000 		.4byte	.LVL75
 2334 01e9 48010000 		.4byte	.LVL76
 2335 01ed 1000     		.2byte	0x10
 2336 01ef 0A       		.byte	0xa
 2337 01f0 3D03     		.2byte	0x33d
 2338 01f2 03       		.byte	0x3
 2339 01f3 00000000 		.4byte	lastCapture
 2340 01f7 94       		.byte	0x94
 2341 01f8 02       		.byte	0x2
 2342 01f9 0A       		.byte	0xa
ARM GAS  C:\Users\winstona\AppData\Local\Temp\ccXRDK8a.s 			page 49


 2343 01fa FFFF     		.2byte	0xffff
 2344 01fc 1A       		.byte	0x1a
 2345 01fd 1C       		.byte	0x1c
 2346 01fe 9F       		.byte	0x9f
 2347 01ff 48010000 		.4byte	.LVL76
 2348 0203 50010000 		.4byte	.LVL78
 2349 0207 0100     		.2byte	0x1
 2350 0209 51       		.byte	0x51
 2351 020a 00000000 		.4byte	0
 2352 020e 00000000 		.4byte	0
 2353              	.LLST5:
 2354 0212 F0000000 		.4byte	.LVL62
 2355 0216 FA000000 		.4byte	.LVL63
 2356 021a 0100     		.2byte	0x1
 2357 021c 52       		.byte	0x52
 2358 021d FA000000 		.4byte	.LVL63
 2359 0221 FE000000 		.4byte	.LVL64
 2360 0225 0900     		.2byte	0x9
 2361 0227 71       		.byte	0x71
 2362 0228 00       		.sleb128 0
 2363 0229 76       		.byte	0x76
 2364 022a 00       		.sleb128 0
 2365 022b 70       		.byte	0x70
 2366 022c 00       		.sleb128 0
 2367 022d 1E       		.byte	0x1e
 2368 022e 1C       		.byte	0x1c
 2369 022f 9F       		.byte	0x9f
 2370 0230 FE000000 		.4byte	.LVL64
 2371 0234 11010000 		.4byte	.LVL69-1
 2372 0238 2100     		.2byte	0x21
 2373 023a 71       		.byte	0x71
 2374 023b 00       		.sleb128 0
 2375 023c 71       		.byte	0x71
 2376 023d 00       		.sleb128 0
 2377 023e F7       		.byte	0xf7
 2378 023f 33       		.uleb128 0x33
 2379 0240 F7       		.byte	0xf7
 2380 0241 25       		.uleb128 0x25
 2381 0242 0C       		.byte	0xc
 2382 0243 1F85EB51 		.4byte	0x51eb851f
 2383 0247 F7       		.byte	0xf7
 2384 0248 25       		.uleb128 0x25
 2385 0249 1E       		.byte	0x1e
 2386 024a 08       		.byte	0x8
 2387 024b 20       		.byte	0x20
 2388 024c F7       		.byte	0xf7
 2389 024d 25       		.uleb128 0x25
 2390 024e 25       		.byte	0x25
 2391 024f F7       		.byte	0xf7
 2392 0250 2C       		.uleb128 0x2c
 2393 0251 34       		.byte	0x34
 2394 0252 26       		.byte	0x26
 2395 0253 75       		.byte	0x75
 2396 0254 00       		.sleb128 0
 2397 0255 1C       		.byte	0x1c
 2398 0256 76       		.byte	0x76
 2399 0257 00       		.sleb128 0
ARM GAS  C:\Users\winstona\AppData\Local\Temp\ccXRDK8a.s 			page 50


 2400 0258 1E       		.byte	0x1e
 2401 0259 1C       		.byte	0x1c
 2402 025a 9F       		.byte	0x9f
 2403 025b 18010000 		.4byte	.LVL70
 2404 025f 26010000 		.4byte	.LVL71
 2405 0263 2100     		.2byte	0x21
 2406 0265 71       		.byte	0x71
 2407 0266 00       		.sleb128 0
 2408 0267 71       		.byte	0x71
 2409 0268 00       		.sleb128 0
 2410 0269 F7       		.byte	0xf7
 2411 026a 33       		.uleb128 0x33
 2412 026b F7       		.byte	0xf7
 2413 026c 25       		.uleb128 0x25
 2414 026d 0C       		.byte	0xc
 2415 026e 1F85EB51 		.4byte	0x51eb851f
 2416 0272 F7       		.byte	0xf7
 2417 0273 25       		.uleb128 0x25
 2418 0274 1E       		.byte	0x1e
 2419 0275 08       		.byte	0x8
 2420 0276 20       		.byte	0x20
 2421 0277 F7       		.byte	0xf7
 2422 0278 25       		.uleb128 0x25
 2423 0279 25       		.byte	0x25
 2424 027a F7       		.byte	0xf7
 2425 027b 2C       		.uleb128 0x2c
 2426 027c 34       		.byte	0x34
 2427 027d 26       		.byte	0x26
 2428 027e 75       		.byte	0x75
 2429 027f 00       		.sleb128 0
 2430 0280 1C       		.byte	0x1c
 2431 0281 76       		.byte	0x76
 2432 0282 00       		.sleb128 0
 2433 0283 1E       		.byte	0x1e
 2434 0284 1C       		.byte	0x1c
 2435 0285 9F       		.byte	0x9f
 2436 0286 26010000 		.4byte	.LVL71
 2437 028a 28010000 		.4byte	.LVL72
 2438 028e 2100     		.2byte	0x21
 2439 0290 71       		.byte	0x71
 2440 0291 00       		.sleb128 0
 2441 0292 71       		.byte	0x71
 2442 0293 00       		.sleb128 0
 2443 0294 F7       		.byte	0xf7
 2444 0295 33       		.uleb128 0x33
 2445 0296 F7       		.byte	0xf7
 2446 0297 25       		.uleb128 0x25
 2447 0298 0C       		.byte	0xc
 2448 0299 1F85EB51 		.4byte	0x51eb851f
 2449 029d F7       		.byte	0xf7
 2450 029e 25       		.uleb128 0x25
 2451 029f 1E       		.byte	0x1e
 2452 02a0 08       		.byte	0x8
 2453 02a1 20       		.byte	0x20
 2454 02a2 F7       		.byte	0xf7
 2455 02a3 25       		.uleb128 0x25
 2456 02a4 25       		.byte	0x25
ARM GAS  C:\Users\winstona\AppData\Local\Temp\ccXRDK8a.s 			page 51


 2457 02a5 F7       		.byte	0xf7
 2458 02a6 2C       		.uleb128 0x2c
 2459 02a7 34       		.byte	0x34
 2460 02a8 26       		.byte	0x26
 2461 02a9 75       		.byte	0x75
 2462 02aa 00       		.sleb128 0
 2463 02ab 1C       		.byte	0x1c
 2464 02ac 08       		.byte	0x8
 2465 02ad 32       		.byte	0x32
 2466 02ae 1E       		.byte	0x1e
 2467 02af 1C       		.byte	0x1c
 2468 02b0 9F       		.byte	0x9f
 2469 02b1 28010000 		.4byte	.LVL72
 2470 02b5 38010000 		.4byte	.LVL75
 2471 02b9 2300     		.2byte	0x23
 2472 02bb 71       		.byte	0x71
 2473 02bc 00       		.sleb128 0
 2474 02bd 71       		.byte	0x71
 2475 02be 00       		.sleb128 0
 2476 02bf F7       		.byte	0xf7
 2477 02c0 33       		.uleb128 0x33
 2478 02c1 F7       		.byte	0xf7
 2479 02c2 25       		.uleb128 0x25
 2480 02c3 0C       		.byte	0xc
 2481 02c4 1F85EB51 		.4byte	0x51eb851f
 2482 02c8 F7       		.byte	0xf7
 2483 02c9 25       		.uleb128 0x25
 2484 02ca 1E       		.byte	0x1e
 2485 02cb 08       		.byte	0x8
 2486 02cc 20       		.byte	0x20
 2487 02cd F7       		.byte	0xf7
 2488 02ce 25       		.uleb128 0x25
 2489 02cf 25       		.byte	0x25
 2490 02d0 F7       		.byte	0xf7
 2491 02d1 2C       		.uleb128 0x2c
 2492 02d2 34       		.byte	0x34
 2493 02d3 26       		.byte	0x26
 2494 02d4 71       		.byte	0x71
 2495 02d5 00       		.sleb128 0
 2496 02d6 4F       		.byte	0x4f
 2497 02d7 26       		.byte	0x26
 2498 02d8 1C       		.byte	0x1c
 2499 02d9 08       		.byte	0x8
 2500 02da 32       		.byte	0x32
 2501 02db 1E       		.byte	0x1e
 2502 02dc 1C       		.byte	0x1c
 2503 02dd 9F       		.byte	0x9f
 2504 02de 38010000 		.4byte	.LVL75
 2505 02e2 48010000 		.4byte	.LVL76
 2506 02e6 4A00     		.2byte	0x4a
 2507 02e8 0A       		.byte	0xa
 2508 02e9 3D03     		.2byte	0x33d
 2509 02eb 03       		.byte	0x3
 2510 02ec 00000000 		.4byte	lastCapture
 2511 02f0 94       		.byte	0x94
 2512 02f1 02       		.byte	0x2
 2513 02f2 0A       		.byte	0xa
ARM GAS  C:\Users\winstona\AppData\Local\Temp\ccXRDK8a.s 			page 52


 2514 02f3 FFFF     		.2byte	0xffff
 2515 02f5 1A       		.byte	0x1a
 2516 02f6 1C       		.byte	0x1c
 2517 02f7 0A       		.byte	0xa
 2518 02f8 3D03     		.2byte	0x33d
 2519 02fa 03       		.byte	0x3
 2520 02fb 00000000 		.4byte	lastCapture
 2521 02ff 94       		.byte	0x94
 2522 0300 02       		.byte	0x2
 2523 0301 0A       		.byte	0xa
 2524 0302 FFFF     		.2byte	0xffff
 2525 0304 1A       		.byte	0x1a
 2526 0305 1C       		.byte	0x1c
 2527 0306 F7       		.byte	0xf7
 2528 0307 33       		.uleb128 0x33
 2529 0308 F7       		.byte	0xf7
 2530 0309 25       		.uleb128 0x25
 2531 030a 0C       		.byte	0xc
 2532 030b 1F85EB51 		.4byte	0x51eb851f
 2533 030f F7       		.byte	0xf7
 2534 0310 25       		.uleb128 0x25
 2535 0311 1E       		.byte	0x1e
 2536 0312 08       		.byte	0x8
 2537 0313 20       		.byte	0x20
 2538 0314 F7       		.byte	0xf7
 2539 0315 25       		.uleb128 0x25
 2540 0316 25       		.byte	0x25
 2541 0317 F7       		.byte	0xf7
 2542 0318 2C       		.uleb128 0x2c
 2543 0319 34       		.byte	0x34
 2544 031a 26       		.byte	0x26
 2545 031b 0A       		.byte	0xa
 2546 031c 3D03     		.2byte	0x33d
 2547 031e 03       		.byte	0x3
 2548 031f 00000000 		.4byte	lastCapture
 2549 0323 94       		.byte	0x94
 2550 0324 02       		.byte	0x2
 2551 0325 0A       		.byte	0xa
 2552 0326 FFFF     		.2byte	0xffff
 2553 0328 1A       		.byte	0x1a
 2554 0329 1C       		.byte	0x1c
 2555 032a 4F       		.byte	0x4f
 2556 032b 26       		.byte	0x26
 2557 032c 1C       		.byte	0x1c
 2558 032d 08       		.byte	0x8
 2559 032e 32       		.byte	0x32
 2560 032f 1E       		.byte	0x1e
 2561 0330 1C       		.byte	0x1c
 2562 0331 9F       		.byte	0x9f
 2563 0332 48010000 		.4byte	.LVL76
 2564 0336 50010000 		.4byte	.LVL78
 2565 033a 2300     		.2byte	0x23
 2566 033c 71       		.byte	0x71
 2567 033d 00       		.sleb128 0
 2568 033e 71       		.byte	0x71
 2569 033f 00       		.sleb128 0
 2570 0340 F7       		.byte	0xf7
ARM GAS  C:\Users\winstona\AppData\Local\Temp\ccXRDK8a.s 			page 53


 2571 0341 33       		.uleb128 0x33
 2572 0342 F7       		.byte	0xf7
 2573 0343 25       		.uleb128 0x25
 2574 0344 0C       		.byte	0xc
 2575 0345 1F85EB51 		.4byte	0x51eb851f
 2576 0349 F7       		.byte	0xf7
 2577 034a 25       		.uleb128 0x25
 2578 034b 1E       		.byte	0x1e
 2579 034c 08       		.byte	0x8
 2580 034d 20       		.byte	0x20
 2581 034e F7       		.byte	0xf7
 2582 034f 25       		.uleb128 0x25
 2583 0350 25       		.byte	0x25
 2584 0351 F7       		.byte	0xf7
 2585 0352 2C       		.uleb128 0x2c
 2586 0353 34       		.byte	0x34
 2587 0354 26       		.byte	0x26
 2588 0355 71       		.byte	0x71
 2589 0356 00       		.sleb128 0
 2590 0357 4F       		.byte	0x4f
 2591 0358 26       		.byte	0x26
 2592 0359 1C       		.byte	0x1c
 2593 035a 08       		.byte	0x8
 2594 035b 32       		.byte	0x32
 2595 035c 1E       		.byte	0x1e
 2596 035d 1C       		.byte	0x1c
 2597 035e 9F       		.byte	0x9f
 2598 035f 00000000 		.4byte	0
 2599 0363 00000000 		.4byte	0
 2600              	.LLST6:
 2601 0367 FA000000 		.4byte	.LVL63
 2602 036b 06010000 		.4byte	.LVL66
 2603 036f 0100     		.2byte	0x1
 2604 0371 52       		.byte	0x52
 2605 0372 06010000 		.4byte	.LVL66
 2606 0376 11010000 		.4byte	.LVL69-1
 2607 037a 3E00     		.2byte	0x3e
 2608 037c 71       		.byte	0x71
 2609 037d 00       		.sleb128 0
 2610 037e F7       		.byte	0xf7
 2611 037f 33       		.uleb128 0x33
 2612 0380 F7       		.byte	0xf7
 2613 0381 25       		.uleb128 0x25
 2614 0382 0C       		.byte	0xc
 2615 0383 1F85EB51 		.4byte	0x51eb851f
 2616 0387 F7       		.byte	0xf7
 2617 0388 25       		.uleb128 0x25
 2618 0389 1E       		.byte	0x1e
 2619 038a 08       		.byte	0x8
 2620 038b 20       		.byte	0x20
 2621 038c F7       		.byte	0xf7
 2622 038d 25       		.uleb128 0x25
 2623 038e 25       		.byte	0x25
 2624 038f F7       		.byte	0xf7
 2625 0390 2C       		.uleb128 0x2c
 2626 0391 34       		.byte	0x34
 2627 0392 26       		.byte	0x26
ARM GAS  C:\Users\winstona\AppData\Local\Temp\ccXRDK8a.s 			page 54


 2628 0393 71       		.byte	0x71
 2629 0394 00       		.sleb128 0
 2630 0395 71       		.byte	0x71
 2631 0396 00       		.sleb128 0
 2632 0397 F7       		.byte	0xf7
 2633 0398 33       		.uleb128 0x33
 2634 0399 F7       		.byte	0xf7
 2635 039a 25       		.uleb128 0x25
 2636 039b 0C       		.byte	0xc
 2637 039c 1F85EB51 		.4byte	0x51eb851f
 2638 03a0 F7       		.byte	0xf7
 2639 03a1 25       		.uleb128 0x25
 2640 03a2 1E       		.byte	0x1e
 2641 03a3 08       		.byte	0x8
 2642 03a4 20       		.byte	0x20
 2643 03a5 F7       		.byte	0xf7
 2644 03a6 25       		.uleb128 0x25
 2645 03a7 25       		.byte	0x25
 2646 03a8 F7       		.byte	0xf7
 2647 03a9 2C       		.uleb128 0x2c
 2648 03aa 34       		.byte	0x34
 2649 03ab 26       		.byte	0x26
 2650 03ac 75       		.byte	0x75
 2651 03ad 00       		.sleb128 0
 2652 03ae 1C       		.byte	0x1c
 2653 03af 76       		.byte	0x76
 2654 03b0 00       		.sleb128 0
 2655 03b1 1E       		.byte	0x1e
 2656 03b2 1C       		.byte	0x1c
 2657 03b3 48       		.byte	0x48
 2658 03b4 2B       		.byte	0x2b
 2659 03b5 22       		.byte	0x22
 2660 03b6 75       		.byte	0x75
 2661 03b7 00       		.sleb128 0
 2662 03b8 1C       		.byte	0x1c
 2663 03b9 9F       		.byte	0x9f
 2664 03ba 18010000 		.4byte	.LVL70
 2665 03be 32010000 		.4byte	.LVL73
 2666 03c2 0100     		.2byte	0x1
 2667 03c4 52       		.byte	0x52
 2668 03c5 32010000 		.4byte	.LVL73
 2669 03c9 38010000 		.4byte	.LVL75
 2670 03cd 4200     		.2byte	0x42
 2671 03cf 71       		.byte	0x71
 2672 03d0 00       		.sleb128 0
 2673 03d1 F7       		.byte	0xf7
 2674 03d2 33       		.uleb128 0x33
 2675 03d3 F7       		.byte	0xf7
 2676 03d4 25       		.uleb128 0x25
 2677 03d5 0C       		.byte	0xc
 2678 03d6 1F85EB51 		.4byte	0x51eb851f
 2679 03da F7       		.byte	0xf7
 2680 03db 25       		.uleb128 0x25
 2681 03dc 1E       		.byte	0x1e
 2682 03dd 08       		.byte	0x8
 2683 03de 20       		.byte	0x20
 2684 03df F7       		.byte	0xf7
ARM GAS  C:\Users\winstona\AppData\Local\Temp\ccXRDK8a.s 			page 55


 2685 03e0 25       		.uleb128 0x25
 2686 03e1 25       		.byte	0x25
 2687 03e2 F7       		.byte	0xf7
 2688 03e3 2C       		.uleb128 0x2c
 2689 03e4 34       		.byte	0x34
 2690 03e5 26       		.byte	0x26
 2691 03e6 71       		.byte	0x71
 2692 03e7 00       		.sleb128 0
 2693 03e8 4F       		.byte	0x4f
 2694 03e9 26       		.byte	0x26
 2695 03ea 1C       		.byte	0x1c
 2696 03eb 71       		.byte	0x71
 2697 03ec 00       		.sleb128 0
 2698 03ed 71       		.byte	0x71
 2699 03ee 00       		.sleb128 0
 2700 03ef F7       		.byte	0xf7
 2701 03f0 33       		.uleb128 0x33
 2702 03f1 F7       		.byte	0xf7
 2703 03f2 25       		.uleb128 0x25
 2704 03f3 0C       		.byte	0xc
 2705 03f4 1F85EB51 		.4byte	0x51eb851f
 2706 03f8 F7       		.byte	0xf7
 2707 03f9 25       		.uleb128 0x25
 2708 03fa 1E       		.byte	0x1e
 2709 03fb 08       		.byte	0x8
 2710 03fc 20       		.byte	0x20
 2711 03fd F7       		.byte	0xf7
 2712 03fe 25       		.uleb128 0x25
 2713 03ff 25       		.byte	0x25
 2714 0400 F7       		.byte	0xf7
 2715 0401 2C       		.uleb128 0x2c
 2716 0402 34       		.byte	0x34
 2717 0403 26       		.byte	0x26
 2718 0404 71       		.byte	0x71
 2719 0405 00       		.sleb128 0
 2720 0406 4F       		.byte	0x4f
 2721 0407 26       		.byte	0x26
 2722 0408 1C       		.byte	0x1c
 2723 0409 08       		.byte	0x8
 2724 040a 32       		.byte	0x32
 2725 040b 1E       		.byte	0x1e
 2726 040c 1C       		.byte	0x1c
 2727 040d 48       		.byte	0x48
 2728 040e 2B       		.byte	0x2b
 2729 040f 22       		.byte	0x22
 2730 0410 9F       		.byte	0x9f
 2731 0411 38010000 		.4byte	.LVL75
 2732 0415 48010000 		.4byte	.LVL76
 2733 0419 8300     		.2byte	0x83
 2734 041b 0A       		.byte	0xa
 2735 041c 3D03     		.2byte	0x33d
 2736 041e 03       		.byte	0x3
 2737 041f 00000000 		.4byte	lastCapture
 2738 0423 94       		.byte	0x94
 2739 0424 02       		.byte	0x2
 2740 0425 0A       		.byte	0xa
 2741 0426 FFFF     		.2byte	0xffff
ARM GAS  C:\Users\winstona\AppData\Local\Temp\ccXRDK8a.s 			page 56


 2742 0428 1A       		.byte	0x1a
 2743 0429 1C       		.byte	0x1c
 2744 042a F7       		.byte	0xf7
 2745 042b 33       		.uleb128 0x33
 2746 042c F7       		.byte	0xf7
 2747 042d 25       		.uleb128 0x25
 2748 042e 0C       		.byte	0xc
 2749 042f 1F85EB51 		.4byte	0x51eb851f
 2750 0433 F7       		.byte	0xf7
 2751 0434 25       		.uleb128 0x25
 2752 0435 1E       		.byte	0x1e
 2753 0436 08       		.byte	0x8
 2754 0437 20       		.byte	0x20
 2755 0438 F7       		.byte	0xf7
 2756 0439 25       		.uleb128 0x25
 2757 043a 25       		.byte	0x25
 2758 043b F7       		.byte	0xf7
 2759 043c 2C       		.uleb128 0x2c
 2760 043d 34       		.byte	0x34
 2761 043e 26       		.byte	0x26
 2762 043f 0A       		.byte	0xa
 2763 0440 3D03     		.2byte	0x33d
 2764 0442 03       		.byte	0x3
 2765 0443 00000000 		.4byte	lastCapture
 2766 0447 94       		.byte	0x94
 2767 0448 02       		.byte	0x2
 2768 0449 0A       		.byte	0xa
 2769 044a FFFF     		.2byte	0xffff
 2770 044c 1A       		.byte	0x1a
 2771 044d 1C       		.byte	0x1c
 2772 044e 4F       		.byte	0x4f
 2773 044f 26       		.byte	0x26
 2774 0450 1C       		.byte	0x1c
 2775 0451 0A       		.byte	0xa
 2776 0452 3D03     		.2byte	0x33d
 2777 0454 03       		.byte	0x3
 2778 0455 00000000 		.4byte	lastCapture
 2779 0459 94       		.byte	0x94
 2780 045a 02       		.byte	0x2
 2781 045b 0A       		.byte	0xa
 2782 045c FFFF     		.2byte	0xffff
 2783 045e 1A       		.byte	0x1a
 2784 045f 1C       		.byte	0x1c
 2785 0460 0A       		.byte	0xa
 2786 0461 3D03     		.2byte	0x33d
 2787 0463 03       		.byte	0x3
 2788 0464 00000000 		.4byte	lastCapture
 2789 0468 94       		.byte	0x94
 2790 0469 02       		.byte	0x2
 2791 046a 0A       		.byte	0xa
 2792 046b FFFF     		.2byte	0xffff
 2793 046d 1A       		.byte	0x1a
 2794 046e 1C       		.byte	0x1c
 2795 046f F7       		.byte	0xf7
 2796 0470 33       		.uleb128 0x33
 2797 0471 F7       		.byte	0xf7
 2798 0472 25       		.uleb128 0x25
ARM GAS  C:\Users\winstona\AppData\Local\Temp\ccXRDK8a.s 			page 57


 2799 0473 0C       		.byte	0xc
 2800 0474 1F85EB51 		.4byte	0x51eb851f
 2801 0478 F7       		.byte	0xf7
 2802 0479 25       		.uleb128 0x25
 2803 047a 1E       		.byte	0x1e
 2804 047b 08       		.byte	0x8
 2805 047c 20       		.byte	0x20
 2806 047d F7       		.byte	0xf7
 2807 047e 25       		.uleb128 0x25
 2808 047f 25       		.byte	0x25
 2809 0480 F7       		.byte	0xf7
 2810 0481 2C       		.uleb128 0x2c
 2811 0482 34       		.byte	0x34
 2812 0483 26       		.byte	0x26
 2813 0484 0A       		.byte	0xa
 2814 0485 3D03     		.2byte	0x33d
 2815 0487 03       		.byte	0x3
 2816 0488 00000000 		.4byte	lastCapture
 2817 048c 94       		.byte	0x94
 2818 048d 02       		.byte	0x2
 2819 048e 0A       		.byte	0xa
 2820 048f FFFF     		.2byte	0xffff
 2821 0491 1A       		.byte	0x1a
 2822 0492 1C       		.byte	0x1c
 2823 0493 4F       		.byte	0x4f
 2824 0494 26       		.byte	0x26
 2825 0495 1C       		.byte	0x1c
 2826 0496 08       		.byte	0x8
 2827 0497 32       		.byte	0x32
 2828 0498 1E       		.byte	0x1e
 2829 0499 1C       		.byte	0x1c
 2830 049a 48       		.byte	0x48
 2831 049b 2B       		.byte	0x2b
 2832 049c 22       		.byte	0x22
 2833 049d 9F       		.byte	0x9f
 2834 049e 48010000 		.4byte	.LVL76
 2835 04a2 50010000 		.4byte	.LVL78
 2836 04a6 4200     		.2byte	0x42
 2837 04a8 71       		.byte	0x71
 2838 04a9 00       		.sleb128 0
 2839 04aa F7       		.byte	0xf7
 2840 04ab 33       		.uleb128 0x33
 2841 04ac F7       		.byte	0xf7
 2842 04ad 25       		.uleb128 0x25
 2843 04ae 0C       		.byte	0xc
 2844 04af 1F85EB51 		.4byte	0x51eb851f
 2845 04b3 F7       		.byte	0xf7
 2846 04b4 25       		.uleb128 0x25
 2847 04b5 1E       		.byte	0x1e
 2848 04b6 08       		.byte	0x8
 2849 04b7 20       		.byte	0x20
 2850 04b8 F7       		.byte	0xf7
 2851 04b9 25       		.uleb128 0x25
 2852 04ba 25       		.byte	0x25
 2853 04bb F7       		.byte	0xf7
 2854 04bc 2C       		.uleb128 0x2c
 2855 04bd 34       		.byte	0x34
ARM GAS  C:\Users\winstona\AppData\Local\Temp\ccXRDK8a.s 			page 58


 2856 04be 26       		.byte	0x26
 2857 04bf 71       		.byte	0x71
 2858 04c0 00       		.sleb128 0
 2859 04c1 4F       		.byte	0x4f
 2860 04c2 26       		.byte	0x26
 2861 04c3 1C       		.byte	0x1c
 2862 04c4 71       		.byte	0x71
 2863 04c5 00       		.sleb128 0
 2864 04c6 71       		.byte	0x71
 2865 04c7 00       		.sleb128 0
 2866 04c8 F7       		.byte	0xf7
 2867 04c9 33       		.uleb128 0x33
 2868 04ca F7       		.byte	0xf7
 2869 04cb 25       		.uleb128 0x25
 2870 04cc 0C       		.byte	0xc
 2871 04cd 1F85EB51 		.4byte	0x51eb851f
 2872 04d1 F7       		.byte	0xf7
 2873 04d2 25       		.uleb128 0x25
 2874 04d3 1E       		.byte	0x1e
 2875 04d4 08       		.byte	0x8
 2876 04d5 20       		.byte	0x20
 2877 04d6 F7       		.byte	0xf7
 2878 04d7 25       		.uleb128 0x25
 2879 04d8 25       		.byte	0x25
 2880 04d9 F7       		.byte	0xf7
 2881 04da 2C       		.uleb128 0x2c
 2882 04db 34       		.byte	0x34
 2883 04dc 26       		.byte	0x26
 2884 04dd 71       		.byte	0x71
 2885 04de 00       		.sleb128 0
 2886 04df 4F       		.byte	0x4f
 2887 04e0 26       		.byte	0x26
 2888 04e1 1C       		.byte	0x1c
 2889 04e2 08       		.byte	0x8
 2890 04e3 32       		.byte	0x32
 2891 04e4 1E       		.byte	0x1e
 2892 04e5 1C       		.byte	0x1c
 2893 04e6 48       		.byte	0x48
 2894 04e7 2B       		.byte	0x2b
 2895 04e8 22       		.byte	0x22
 2896 04e9 9F       		.byte	0x9f
 2897 04ea 00000000 		.4byte	0
 2898 04ee 00000000 		.4byte	0
 2899              	.LLST7:
 2900 04f2 00010000 		.4byte	.LVL65
 2901 04f6 0E010000 		.4byte	.LVL68
 2902 04fa 0100     		.2byte	0x1
 2903 04fc 50       		.byte	0x50
 2904 04fd 0E010000 		.4byte	.LVL68
 2905 0501 11010000 		.4byte	.LVL69-1
 2906 0505 8000     		.2byte	0x80
 2907 0507 71       		.byte	0x71
 2908 0508 00       		.sleb128 0
 2909 0509 F7       		.byte	0xf7
 2910 050a 33       		.uleb128 0x33
 2911 050b F7       		.byte	0xf7
 2912 050c 25       		.uleb128 0x25
ARM GAS  C:\Users\winstona\AppData\Local\Temp\ccXRDK8a.s 			page 59


 2913 050d 0C       		.byte	0xc
 2914 050e 1F85EB51 		.4byte	0x51eb851f
 2915 0512 F7       		.byte	0xf7
 2916 0513 25       		.uleb128 0x25
 2917 0514 1E       		.byte	0x1e
 2918 0515 08       		.byte	0x8
 2919 0516 20       		.byte	0x20
 2920 0517 F7       		.byte	0xf7
 2921 0518 25       		.uleb128 0x25
 2922 0519 25       		.byte	0x25
 2923 051a F7       		.byte	0xf7
 2924 051b 2C       		.uleb128 0x2c
 2925 051c 34       		.byte	0x34
 2926 051d 26       		.byte	0x26
 2927 051e 71       		.byte	0x71
 2928 051f 00       		.sleb128 0
 2929 0520 71       		.byte	0x71
 2930 0521 00       		.sleb128 0
 2931 0522 F7       		.byte	0xf7
 2932 0523 33       		.uleb128 0x33
 2933 0524 F7       		.byte	0xf7
 2934 0525 25       		.uleb128 0x25
 2935 0526 0C       		.byte	0xc
 2936 0527 1F85EB51 		.4byte	0x51eb851f
 2937 052b F7       		.byte	0xf7
 2938 052c 25       		.uleb128 0x25
 2939 052d 1E       		.byte	0x1e
 2940 052e 08       		.byte	0x8
 2941 052f 20       		.byte	0x20
 2942 0530 F7       		.byte	0xf7
 2943 0531 25       		.uleb128 0x25
 2944 0532 25       		.byte	0x25
 2945 0533 F7       		.byte	0xf7
 2946 0534 2C       		.uleb128 0x2c
 2947 0535 34       		.byte	0x34
 2948 0536 26       		.byte	0x26
 2949 0537 75       		.byte	0x75
 2950 0538 00       		.sleb128 0
 2951 0539 1C       		.byte	0x1c
 2952 053a 76       		.byte	0x76
 2953 053b 00       		.sleb128 0
 2954 053c 1E       		.byte	0x1e
 2955 053d 1C       		.byte	0x1c
 2956 053e 48       		.byte	0x48
 2957 053f 2B       		.byte	0x2b
 2958 0540 22       		.byte	0x22
 2959 0541 75       		.byte	0x75
 2960 0542 00       		.sleb128 0
 2961 0543 1C       		.byte	0x1c
 2962 0544 4F       		.byte	0x4f
 2963 0545 25       		.byte	0x25
 2964 0546 71       		.byte	0x71
 2965 0547 00       		.sleb128 0
 2966 0548 F7       		.byte	0xf7
 2967 0549 33       		.uleb128 0x33
 2968 054a F7       		.byte	0xf7
 2969 054b 25       		.uleb128 0x25
ARM GAS  C:\Users\winstona\AppData\Local\Temp\ccXRDK8a.s 			page 60


 2970 054c 0C       		.byte	0xc
 2971 054d 1F85EB51 		.4byte	0x51eb851f
 2972 0551 F7       		.byte	0xf7
 2973 0552 25       		.uleb128 0x25
 2974 0553 1E       		.byte	0x1e
 2975 0554 08       		.byte	0x8
 2976 0555 20       		.byte	0x20
 2977 0556 F7       		.byte	0xf7
 2978 0557 25       		.uleb128 0x25
 2979 0558 25       		.byte	0x25
 2980 0559 F7       		.byte	0xf7
 2981 055a 2C       		.uleb128 0x2c
 2982 055b 34       		.byte	0x34
 2983 055c 26       		.byte	0x26
 2984 055d 22       		.byte	0x22
 2985 055e 71       		.byte	0x71
 2986 055f 00       		.sleb128 0
 2987 0560 71       		.byte	0x71
 2988 0561 00       		.sleb128 0
 2989 0562 F7       		.byte	0xf7
 2990 0563 33       		.uleb128 0x33
 2991 0564 F7       		.byte	0xf7
 2992 0565 25       		.uleb128 0x25
 2993 0566 0C       		.byte	0xc
 2994 0567 1F85EB51 		.4byte	0x51eb851f
 2995 056b F7       		.byte	0xf7
 2996 056c 25       		.uleb128 0x25
 2997 056d 1E       		.byte	0x1e
 2998 056e 08       		.byte	0x8
 2999 056f 20       		.byte	0x20
 3000 0570 F7       		.byte	0xf7
 3001 0571 25       		.uleb128 0x25
 3002 0572 25       		.byte	0x25
 3003 0573 F7       		.byte	0xf7
 3004 0574 2C       		.uleb128 0x2c
 3005 0575 34       		.byte	0x34
 3006 0576 26       		.byte	0x26
 3007 0577 75       		.byte	0x75
 3008 0578 00       		.sleb128 0
 3009 0579 1C       		.byte	0x1c
 3010 057a 76       		.byte	0x76
 3011 057b 00       		.sleb128 0
 3012 057c 1E       		.byte	0x1e
 3013 057d 1C       		.byte	0x1c
 3014 057e 48       		.byte	0x48
 3015 057f 2B       		.byte	0x2b
 3016 0580 22       		.byte	0x22
 3017 0581 75       		.byte	0x75
 3018 0582 00       		.sleb128 0
 3019 0583 1C       		.byte	0x1c
 3020 0584 31       		.byte	0x31
 3021 0585 26       		.byte	0x26
 3022 0586 9F       		.byte	0x9f
 3023 0587 18010000 		.4byte	.LVL70
 3024 058b 50010000 		.4byte	.LVL78
 3025 058f 0100     		.2byte	0x1
 3026 0591 50       		.byte	0x50
ARM GAS  C:\Users\winstona\AppData\Local\Temp\ccXRDK8a.s 			page 61


 3027 0592 00000000 		.4byte	0
 3028 0596 00000000 		.4byte	0
 3029              	.LLST8:
 3030 059a 36010000 		.4byte	.LVL74
 3031 059e 38010000 		.4byte	.LVL75
 3032 05a2 4200     		.2byte	0x42
 3033 05a4 71       		.byte	0x71
 3034 05a5 00       		.sleb128 0
 3035 05a6 F7       		.byte	0xf7
 3036 05a7 33       		.uleb128 0x33
 3037 05a8 F7       		.byte	0xf7
 3038 05a9 25       		.uleb128 0x25
 3039 05aa 0C       		.byte	0xc
 3040 05ab 1F85EB51 		.4byte	0x51eb851f
 3041 05af F7       		.byte	0xf7
 3042 05b0 25       		.uleb128 0x25
 3043 05b1 1E       		.byte	0x1e
 3044 05b2 08       		.byte	0x8
 3045 05b3 20       		.byte	0x20
 3046 05b4 F7       		.byte	0xf7
 3047 05b5 25       		.uleb128 0x25
 3048 05b6 25       		.byte	0x25
 3049 05b7 F7       		.byte	0xf7
 3050 05b8 2C       		.uleb128 0x2c
 3051 05b9 34       		.byte	0x34
 3052 05ba 26       		.byte	0x26
 3053 05bb 71       		.byte	0x71
 3054 05bc 00       		.sleb128 0
 3055 05bd 4F       		.byte	0x4f
 3056 05be 26       		.byte	0x26
 3057 05bf 1C       		.byte	0x1c
 3058 05c0 71       		.byte	0x71
 3059 05c1 00       		.sleb128 0
 3060 05c2 71       		.byte	0x71
 3061 05c3 00       		.sleb128 0
 3062 05c4 F7       		.byte	0xf7
 3063 05c5 33       		.uleb128 0x33
 3064 05c6 F7       		.byte	0xf7
 3065 05c7 25       		.uleb128 0x25
 3066 05c8 0C       		.byte	0xc
 3067 05c9 1F85EB51 		.4byte	0x51eb851f
 3068 05cd F7       		.byte	0xf7
 3069 05ce 25       		.uleb128 0x25
 3070 05cf 1E       		.byte	0x1e
 3071 05d0 08       		.byte	0x8
 3072 05d1 20       		.byte	0x20
 3073 05d2 F7       		.byte	0xf7
 3074 05d3 25       		.uleb128 0x25
 3075 05d4 25       		.byte	0x25
 3076 05d5 F7       		.byte	0xf7
 3077 05d6 2C       		.uleb128 0x2c
 3078 05d7 34       		.byte	0x34
 3079 05d8 26       		.byte	0x26
 3080 05d9 71       		.byte	0x71
 3081 05da 00       		.sleb128 0
 3082 05db 4F       		.byte	0x4f
 3083 05dc 26       		.byte	0x26
ARM GAS  C:\Users\winstona\AppData\Local\Temp\ccXRDK8a.s 			page 62


 3084 05dd 1C       		.byte	0x1c
 3085 05de 08       		.byte	0x8
 3086 05df 32       		.byte	0x32
 3087 05e0 1E       		.byte	0x1e
 3088 05e1 1C       		.byte	0x1c
 3089 05e2 48       		.byte	0x48
 3090 05e3 2B       		.byte	0x2b
 3091 05e4 22       		.byte	0x22
 3092 05e5 9F       		.byte	0x9f
 3093 05e6 38010000 		.4byte	.LVL75
 3094 05ea 48010000 		.4byte	.LVL76
 3095 05ee 8300     		.2byte	0x83
 3096 05f0 0A       		.byte	0xa
 3097 05f1 3D03     		.2byte	0x33d
 3098 05f3 03       		.byte	0x3
 3099 05f4 00000000 		.4byte	lastCapture
 3100 05f8 94       		.byte	0x94
 3101 05f9 02       		.byte	0x2
 3102 05fa 0A       		.byte	0xa
 3103 05fb FFFF     		.2byte	0xffff
 3104 05fd 1A       		.byte	0x1a
 3105 05fe 1C       		.byte	0x1c
 3106 05ff F7       		.byte	0xf7
 3107 0600 33       		.uleb128 0x33
 3108 0601 F7       		.byte	0xf7
 3109 0602 25       		.uleb128 0x25
 3110 0603 0C       		.byte	0xc
 3111 0604 1F85EB51 		.4byte	0x51eb851f
 3112 0608 F7       		.byte	0xf7
 3113 0609 25       		.uleb128 0x25
 3114 060a 1E       		.byte	0x1e
 3115 060b 08       		.byte	0x8
 3116 060c 20       		.byte	0x20
 3117 060d F7       		.byte	0xf7
 3118 060e 25       		.uleb128 0x25
 3119 060f 25       		.byte	0x25
 3120 0610 F7       		.byte	0xf7
 3121 0611 2C       		.uleb128 0x2c
 3122 0612 34       		.byte	0x34
 3123 0613 26       		.byte	0x26
 3124 0614 0A       		.byte	0xa
 3125 0615 3D03     		.2byte	0x33d
 3126 0617 03       		.byte	0x3
 3127 0618 00000000 		.4byte	lastCapture
 3128 061c 94       		.byte	0x94
 3129 061d 02       		.byte	0x2
 3130 061e 0A       		.byte	0xa
 3131 061f FFFF     		.2byte	0xffff
 3132 0621 1A       		.byte	0x1a
 3133 0622 1C       		.byte	0x1c
 3134 0623 4F       		.byte	0x4f
 3135 0624 26       		.byte	0x26
 3136 0625 1C       		.byte	0x1c
 3137 0626 0A       		.byte	0xa
 3138 0627 3D03     		.2byte	0x33d
 3139 0629 03       		.byte	0x3
 3140 062a 00000000 		.4byte	lastCapture
ARM GAS  C:\Users\winstona\AppData\Local\Temp\ccXRDK8a.s 			page 63


 3141 062e 94       		.byte	0x94
 3142 062f 02       		.byte	0x2
 3143 0630 0A       		.byte	0xa
 3144 0631 FFFF     		.2byte	0xffff
 3145 0633 1A       		.byte	0x1a
 3146 0634 1C       		.byte	0x1c
 3147 0635 0A       		.byte	0xa
 3148 0636 3D03     		.2byte	0x33d
 3149 0638 03       		.byte	0x3
 3150 0639 00000000 		.4byte	lastCapture
 3151 063d 94       		.byte	0x94
 3152 063e 02       		.byte	0x2
 3153 063f 0A       		.byte	0xa
 3154 0640 FFFF     		.2byte	0xffff
 3155 0642 1A       		.byte	0x1a
 3156 0643 1C       		.byte	0x1c
 3157 0644 F7       		.byte	0xf7
 3158 0645 33       		.uleb128 0x33
 3159 0646 F7       		.byte	0xf7
 3160 0647 25       		.uleb128 0x25
 3161 0648 0C       		.byte	0xc
 3162 0649 1F85EB51 		.4byte	0x51eb851f
 3163 064d F7       		.byte	0xf7
 3164 064e 25       		.uleb128 0x25
 3165 064f 1E       		.byte	0x1e
 3166 0650 08       		.byte	0x8
 3167 0651 20       		.byte	0x20
 3168 0652 F7       		.byte	0xf7
 3169 0653 25       		.uleb128 0x25
 3170 0654 25       		.byte	0x25
 3171 0655 F7       		.byte	0xf7
 3172 0656 2C       		.uleb128 0x2c
 3173 0657 34       		.byte	0x34
 3174 0658 26       		.byte	0x26
 3175 0659 0A       		.byte	0xa
 3176 065a 3D03     		.2byte	0x33d
 3177 065c 03       		.byte	0x3
 3178 065d 00000000 		.4byte	lastCapture
 3179 0661 94       		.byte	0x94
 3180 0662 02       		.byte	0x2
 3181 0663 0A       		.byte	0xa
 3182 0664 FFFF     		.2byte	0xffff
 3183 0666 1A       		.byte	0x1a
 3184 0667 1C       		.byte	0x1c
 3185 0668 4F       		.byte	0x4f
 3186 0669 26       		.byte	0x26
 3187 066a 1C       		.byte	0x1c
 3188 066b 08       		.byte	0x8
 3189 066c 32       		.byte	0x32
 3190 066d 1E       		.byte	0x1e
 3191 066e 1C       		.byte	0x1c
 3192 066f 48       		.byte	0x48
 3193 0670 2B       		.byte	0x2b
 3194 0671 22       		.byte	0x22
 3195 0672 9F       		.byte	0x9f
 3196 0673 00000000 		.4byte	0
 3197 0677 00000000 		.4byte	0
ARM GAS  C:\Users\winstona\AppData\Local\Temp\ccXRDK8a.s 			page 64


 3198              	.LLST9:
 3199 067b 54010000 		.4byte	.LVL79
 3200 067f 6A010000 		.4byte	.LVL82
 3201 0683 0100     		.2byte	0x1
 3202 0685 51       		.byte	0x51
 3203 0686 6A010000 		.4byte	.LVL82
 3204 068a 79010000 		.4byte	.LVL83-1
 3205 068e 0F00     		.2byte	0xf
 3206 0690 08       		.byte	0x8
 3207 0691 33       		.byte	0x33
 3208 0692 03       		.byte	0x3
 3209 0693 00000000 		.4byte	lastCapture
 3210 0697 94       		.byte	0x94
 3211 0698 02       		.byte	0x2
 3212 0699 0A       		.byte	0xa
 3213 069a FFFF     		.2byte	0xffff
 3214 069c 1A       		.byte	0x1a
 3215 069d 1C       		.byte	0x1c
 3216 069e 9F       		.byte	0x9f
 3217 069f 00000000 		.4byte	0
 3218 06a3 00000000 		.4byte	0
 3219              		.section	.debug_aranges,"",%progbits
 3220 0000 3C000000 		.4byte	0x3c
 3221 0004 0200     		.2byte	0x2
 3222 0006 00000000 		.4byte	.Ldebug_info0
 3223 000a 04       		.byte	0x4
 3224 000b 00       		.byte	0
 3225 000c 0000     		.2byte	0
 3226 000e 0000     		.2byte	0
 3227 0010 00000000 		.4byte	.LFB64
 3228 0014 54000000 		.4byte	.LFE64-.LFB64
 3229 0018 00000000 		.4byte	.LFB65
 3230 001c 74000000 		.4byte	.LFE65-.LFB65
 3231 0020 00000000 		.4byte	.LFB66
 3232 0024 7C000000 		.4byte	.LFE66-.LFB66
 3233 0028 00000000 		.4byte	.LFB67
 3234 002c C4000000 		.4byte	.LFE67-.LFB67
 3235 0030 00000000 		.4byte	.LFB68
 3236 0034 D8010000 		.4byte	.LFE68-.LFB68
 3237 0038 00000000 		.4byte	0
 3238 003c 00000000 		.4byte	0
 3239              		.section	.debug_ranges,"",%progbits
 3240              	.Ldebug_ranges0:
 3241 0000 00000000 		.4byte	.LFB64
 3242 0004 54000000 		.4byte	.LFE64
 3243 0008 00000000 		.4byte	.LFB65
 3244 000c 74000000 		.4byte	.LFE65
 3245 0010 00000000 		.4byte	.LFB66
 3246 0014 7C000000 		.4byte	.LFE66
 3247 0018 00000000 		.4byte	.LFB67
 3248 001c C4000000 		.4byte	.LFE67
 3249 0020 00000000 		.4byte	.LFB68
 3250 0024 D8010000 		.4byte	.LFE68
 3251 0028 00000000 		.4byte	0
 3252 002c 00000000 		.4byte	0
 3253              		.section	.debug_line,"",%progbits
 3254              	.Ldebug_line0:
ARM GAS  C:\Users\winstona\AppData\Local\Temp\ccXRDK8a.s 			page 65


 3255 0000 EF020000 		.section	.debug_str,"MS",%progbits,1
 3255      0200EA01 
 3255      00000201 
 3255      FB0E0D00 
 3255      01010101 
 3256              	.LASF37:
 3257 0000 6C6F6361 		.ascii	"localTimerWrapped\000"
 3257      6C54696D 
 3257      65725772 
 3257      61707065 
 3257      6400
 3258              	.LASF79:
 3259 0012 55534255 		.ascii	"USBUART_CDCIsReady\000"
 3259      4152545F 
 3259      43444349 
 3259      73526561 
 3259      647900
 3260              	.LASF28:
 3261 0025 44415441 		.ascii	"DATA_NONE\000"
 3261      5F4E4F4E 
 3261      4500
 3262              	.LASF50:
 3263 002f 62756666 		.ascii	"bufferPosition\000"
 3263      6572506F 
 3263      73697469 
 3263      6F6E00
 3264              	.LASF81:
 3265 003e 52697369 		.ascii	"RisingEdgeISR_StartEx\000"
 3265      6E674564 
 3265      67654953 
 3265      525F5374 
 3265      61727445 
 3266              	.LASF31:
 3267 0054 52656365 		.ascii	"ReceiveInterruptHandler\000"
 3267      69766549 
 3267      6E746572 
 3267      72757074 
 3267      48616E64 
 3268              	.LASF4:
 3269 006c 73686F72 		.ascii	"short int\000"
 3269      7420696E 
 3269      7400
 3270              	.LASF27:
 3271 0076 44415441 		.ascii	"DATA_FALLING\000"
 3271      5F46414C 
 3271      4C494E47 
 3271      00
 3272              	.LASF21:
 3273 0083 73697A65 		.ascii	"sizetype\000"
 3273      74797065 
 3273      00
 3274              	.LASF42:
 3275 008c 6E656172 		.ascii	"nearestNumSymbols\000"
 3275      6573744E 
 3275      756D5379 
 3275      6D626F6C 
 3275      7300
ARM GAS  C:\Users\winstona\AppData\Local\Temp\ccXRDK8a.s 			page 66


 3276              	.LASF57:
 3277 009e 65646765 		.ascii	"edgeDataStatus\000"
 3277      44617461 
 3277      53746174 
 3277      757300
 3278              	.LASF88:
 3279 00ad 6D61696E 		.ascii	"main\000"
 3279      00
 3280              	.LASF6:
 3281 00b2 5F5F7569 		.ascii	"__uint16_t\000"
 3281      6E743136 
 3281      5F7400
 3282              	.LASF66:
 3283 00bd 54696D65 		.ascii	"TimerRX_ReadCounter\000"
 3283      7252585F 
 3283      52656164 
 3283      436F756E 
 3283      74657200 
 3284              	.LASF84:
 3285 00d1 55534255 		.ascii	"USBUART_Start\000"
 3285      4152545F 
 3285      53746172 
 3285      7400
 3286              	.LASF53:
 3287 00df 64617461 		.ascii	"dataSize\000"
 3287      53697A65 
 3287      00
 3288              	.LASF63:
 3289 00e8 42555359 		.ascii	"BUSY_Write\000"
 3289      5F577269 
 3289      746500
 3290              	.LASF12:
 3291 00f3 75696E74 		.ascii	"uint8_t\000"
 3291      385F7400 
 3292              	.LASF35:
 3293 00fb 75617274 		.ascii	"uartConnected\000"
 3293      436F6E6E 
 3293      65637465 
 3293      6400
 3294              	.LASF24:
 3295 0109 49444C45 		.ascii	"IDLE\000"
 3295      00
 3296              	.LASF26:
 3297 010e 44415441 		.ascii	"DATA_RISING\000"
 3297      5F524953 
 3297      494E4700 
 3298              	.LASF80:
 3299 011a 55534255 		.ascii	"USBUART_PutString\000"
 3299      4152545F 
 3299      50757453 
 3299      7472696E 
 3299      6700
 3300              	.LASF49:
 3301 012c 63757272 		.ascii	"currentDataCharacter\000"
 3301      656E7444 
 3301      61746143 
 3301      68617261 
ARM GAS  C:\Users\winstona\AppData\Local\Temp\ccXRDK8a.s 			page 67


 3301      63746572 
 3302              	.LASF16:
 3303 0141 666C6F61 		.ascii	"float\000"
 3303      7400
 3304              	.LASF77:
 3305 0147 55534255 		.ascii	"USBUART_GetConfiguration\000"
 3305      4152545F 
 3305      47657443 
 3305      6F6E6669 
 3305      67757261 
 3306              	.LASF11:
 3307 0160 6C6F6E67 		.ascii	"long long int\000"
 3307      206C6F6E 
 3307      6720696E 
 3307      7400
 3308              	.LASF25:
 3309 016e 53746174 		.ascii	"State\000"
 3309      6500
 3310              	.LASF46:
 3311 0174 49544D5F 		.ascii	"ITM_RxBuffer\000"
 3311      52784275 
 3311      66666572 
 3311      00
 3312              	.LASF34:
 3313 0181 5472616E 		.ascii	"TransmitInterruptHandler\000"
 3313      736D6974 
 3313      496E7465 
 3313      72727570 
 3313      7448616E 
 3314              	.LASF9:
 3315 019a 6C6F6E67 		.ascii	"long int\000"
 3315      20696E74 
 3315      00
 3316              	.LASF58:
 3317 01a3 6C617374 		.ascii	"lastCapture\000"
 3317      43617074 
 3317      75726500 
 3318              	.LASF45:
 3319 01af 55534255 		.ascii	"USBUART_device\000"
 3319      4152545F 
 3319      64657669 
 3319      636500
 3320              	.LASF5:
 3321 01be 5F5F7569 		.ascii	"__uint8_t\000"
 3321      6E74385F 
 3321      7400
 3322              	.LASF33:
 3323 01c8 46616C6C 		.ascii	"FallingEdgeInterruptHandler\000"
 3323      696E6745 
 3323      64676549 
 3323      6E746572 
 3323      72757074 
 3324              	.LASF23:
 3325 01e4 434F4C4C 		.ascii	"COLLISION\000"
 3325      4953494F 
 3325      4E00
 3326              	.LASF22:
ARM GAS  C:\Users\winstona\AppData\Local\Temp\ccXRDK8a.s 			page 68


 3327 01ee 42555359 		.ascii	"BUSY\000"
 3327      00
 3328              	.LASF20:
 3329 01f3 6C6F6E67 		.ascii	"long double\000"
 3329      20646F75 
 3329      626C6500 
 3330              	.LASF56:
 3331 01ff 72784269 		.ascii	"rxBit\000"
 3331      7400
 3332              	.LASF72:
 3333 0205 43794465 		.ascii	"CyDelayUs\000"
 3333      6C617955 
 3333      7300
 3334              	.LASF3:
 3335 020f 756E7369 		.ascii	"unsigned char\000"
 3335      676E6564 
 3335      20636861 
 3335      7200
 3336              	.LASF47:
 3337 021d 73797374 		.ascii	"systemState\000"
 3337      656D5374 
 3337      61746500 
 3338              	.LASF41:
 3339 0229 73796D62 		.ascii	"symbolClkCycles\000"
 3339      6F6C436C 
 3339      6B437963 
 3339      6C657300 
 3340              	.LASF2:
 3341 0239 7369676E 		.ascii	"signed char\000"
 3341      65642063 
 3341      68617200 
 3342              	.LASF0:
 3343 0245 6C6F6E67 		.ascii	"long long unsigned int\000"
 3343      206C6F6E 
 3343      6720756E 
 3343      7369676E 
 3343      65642069 
 3344              	.LASF87:
 3345 025c 433A5C55 		.ascii	"C:\\Users\\winstona\\Documents\\School Documents\\N"
 3345      73657273 
 3345      5C77696E 
 3345      73746F6E 
 3345      615C446F 
 3346 028a 6574776F 		.ascii	"etworking I\\ce4950lab1\\NetworkingProject.cydsn\000"
 3346      726B696E 
 3346      6720495C 
 3346      63653439 
 3346      35306C61 
 3347              	.LASF1:
 3348 02b9 756E7369 		.ascii	"unsigned int\000"
 3348      676E6564 
 3348      20696E74 
 3348      00
 3349              	.LASF13:
 3350 02c6 75696E74 		.ascii	"uint16_t\000"
 3350      31365F74 
 3350      00
ARM GAS  C:\Users\winstona\AppData\Local\Temp\ccXRDK8a.s 			page 69


 3351              	.LASF60:
 3352 02cf 74696D65 		.ascii	"timerWrapped\000"
 3352      72577261 
 3352      70706564 
 3352      00
 3353              	.LASF54:
 3354 02dc 73796D62 		.ascii	"symbolPosition\000"
 3354      6F6C506F 
 3354      73697469 
 3354      6F6E00
 3355              	.LASF74:
 3356 02eb 54696D65 		.ascii	"TimerRX_ClearFIFO\000"
 3356      7252585F 
 3356      436C6561 
 3356      72464946 
 3356      4F00
 3357              	.LASF39:
 3358 02fd 696E7075 		.ascii	"inputCaptureTime\000"
 3358      74436170 
 3358      74757265 
 3358      54696D65 
 3358      00
 3359              	.LASF83:
 3360 030e 52656365 		.ascii	"ReceiveISR_StartEx\000"
 3360      69766549 
 3360      53525F53 
 3360      74617274 
 3360      457800
 3361              	.LASF7:
 3362 0321 73686F72 		.ascii	"short unsigned int\000"
 3362      7420756E 
 3362      7369676E 
 3362      65642069 
 3362      6E7400
 3363              	.LASF40:
 3364 0334 74696D65 		.ascii	"timeClk\000"
 3364      436C6B00 
 3365              	.LASF18:
 3366 033c 63686172 		.ascii	"char\000"
 3366      00
 3367              	.LASF44:
 3368 0341 5F426F6F 		.ascii	"_Bool\000"
 3368      6C00
 3369              	.LASF14:
 3370 0347 696E7433 		.ascii	"int32_t\000"
 3370      325F7400 
 3371              	.LASF62:
 3372 034f 49444C45 		.ascii	"IDLE_Write\000"
 3372      5F577269 
 3372      746500
 3373              	.LASF67:
 3374 035a 54696D65 		.ascii	"TimerRX_WritePeriod\000"
 3374      7252585F 
 3374      57726974 
 3374      65506572 
 3374      696F6400 
 3375              	.LASF73:
ARM GAS  C:\Users\winstona\AppData\Local\Temp\ccXRDK8a.s 			page 70


 3376 036e 55534255 		.ascii	"USBUART_PutChar\000"
 3376      4152545F 
 3376      50757443 
 3376      68617200 
 3377              	.LASF52:
 3378 037e 64617461 		.ascii	"data\000"
 3378      00
 3379              	.LASF82:
 3380 0383 46616C6C 		.ascii	"FallingEdgeISR_StartEx\000"
 3380      696E6745 
 3380      64676549 
 3380      53525F53 
 3380      74617274 
 3381              	.LASF51:
 3382 039a 62756666 		.ascii	"buffer\000"
 3382      657200
 3383              	.LASF70:
 3384 03a1 46616C6C 		.ascii	"FallingEdgeISR_ClearPending\000"
 3384      696E6745 
 3384      64676549 
 3384      53525F43 
 3384      6C656172 
 3385              	.LASF76:
 3386 03bd 55534255 		.ascii	"USBUART_IsConfigurationChanged\000"
 3386      4152545F 
 3386      4973436F 
 3386      6E666967 
 3386      75726174 
 3387              	.LASF61:
 3388 03dc 434F4C4C 		.ascii	"COLLISION_Write\000"
 3388      4953494F 
 3388      4E5F5772 
 3388      69746500 
 3389              	.LASF86:
 3390 03ec 6D61696E 		.ascii	"main.c\000"
 3390      2E6300
 3391              	.LASF19:
 3392 03f3 72656738 		.ascii	"reg8\000"
 3392      00
 3393              	.LASF10:
 3394 03f8 6C6F6E67 		.ascii	"long unsigned int\000"
 3394      20756E73 
 3394      69676E65 
 3394      6420696E 
 3394      7400
 3395              	.LASF30:
 3396 040a 45646765 		.ascii	"EdgeStatus\000"
 3396      53746174 
 3396      757300
 3397              	.LASF17:
 3398 0415 646F7562 		.ascii	"double\000"
 3398      6C6500
 3399              	.LASF64:
 3400 041c 52697369 		.ascii	"RisingEdgeISR_ClearPending\000"
 3400      6E674564 
 3400      67654953 
 3400      525F436C 
ARM GAS  C:\Users\winstona\AppData\Local\Temp\ccXRDK8a.s 			page 71


 3400      65617250 
 3401              	.LASF38:
 3402 0437 6C6F6361 		.ascii	"localEdgeStatus\000"
 3402      6C456467 
 3402      65537461 
 3402      74757300 
 3403              	.LASF29:
 3404 0447 44415441 		.ascii	"DATA_ERROR\000"
 3404      5F455252 
 3404      4F5200
 3405              	.LASF48:
 3406 0452 6C6F6769 		.ascii	"logicLevel\000"
 3406      634C6576 
 3406      656C00
 3407              	.LASF55:
 3408 045d 636F756E 		.ascii	"count\000"
 3408      7400
 3409              	.LASF36:
 3410 0463 6C6F6361 		.ascii	"localState\000"
 3410      6C537461 
 3410      746500
 3411              	.LASF8:
 3412 046e 5F5F696E 		.ascii	"__int32_t\000"
 3412      7433325F 
 3412      7400
 3413              	.LASF71:
 3414 0478 5452414E 		.ascii	"TRANSMIT_Write\000"
 3414      534D4954 
 3414      5F577269 
 3414      746500
 3415              	.LASF75:
 3416 0487 55534255 		.ascii	"USBUART_GetDTERate\000"
 3416      4152545F 
 3416      47657444 
 3416      54455261 
 3416      746500
 3417              	.LASF65:
 3418 049a 54696D65 		.ascii	"TimerRX_Sleep\000"
 3418      7252585F 
 3418      536C6565 
 3418      7000
 3419              	.LASF69:
 3420 04a8 54696D65 		.ascii	"TimerRX_Start\000"
 3420      7252585F 
 3420      53746172 
 3420      7400
 3421              	.LASF15:
 3422 04b6 75696E74 		.ascii	"uint8\000"
 3422      3800
 3423              	.LASF78:
 3424 04bc 55534255 		.ascii	"USBUART_CDC_Init\000"
 3424      4152545F 
 3424      4344435F 
 3424      496E6974 
 3424      00
 3425              	.LASF68:
 3426 04cd 54696D65 		.ascii	"TimerRX_WriteCounter\000"
ARM GAS  C:\Users\winstona\AppData\Local\Temp\ccXRDK8a.s 			page 72


 3426      7252585F 
 3426      57726974 
 3426      65436F75 
 3426      6E746572 
 3427              	.LASF59:
 3428 04e2 63757272 		.ascii	"currRxChar\000"
 3428      52784368 
 3428      617200
 3429              	.LASF85:
 3430 04ed 474E5520 		.ascii	"GNU C11 5.4.1 20160609 (release) [ARM/embedded-5-br"
 3430      43313120 
 3430      352E342E 
 3430      31203230 
 3430      31363036 
 3431 0520 616E6368 		.ascii	"anch revision 237715] -mcpu=cortex-m3 -mthumb -g -O"
 3431      20726576 
 3431      6973696F 
 3431      6E203233 
 3431      37373135 
 3432 0553 67202D66 		.ascii	"g -ffunction-sections -ffat-lto-objects\000"
 3432      66756E63 
 3432      74696F6E 
 3432      2D736563 
 3432      74696F6E 
 3433              	.LASF43:
 3434 057b 62697473 		.ascii	"bitsToShift\000"
 3434      546F5368 
 3434      69667400 
 3435              	.LASF32:
 3436 0587 52697369 		.ascii	"RisingEdgeInterruptHandler\000"
 3436      6E674564 
 3436      6765496E 
 3436      74657272 
 3436      75707448 
 3437              		.ident	"GCC: (GNU Tools for ARM Embedded Processors) 5.4.1 20160609 (release) [ARM/embedded-5-bran
